

Microchip Technology PIC LITE Macro Assembler V1.44 build -154322312 
                                                                                               Sat Feb 17 21:11:28 2018

Microchip Technology Omniscient Code Generator v1.44 (Free mode) build 201709140600
     1                           	processor	16F18875
     2                           	opt	pw 120
     3                           	opt	lm
     4                           	psect	cinit,global,class=CODE,merge=1,delta=2
     5                           	psect	cstackCOMMON,global,class=COMMON,space=1,delta=1
     6                           	psect	maintext,global,class=CODE,merge=1,split=1,delta=2
     7                           	psect	text1,local,class=CODE,merge=1,delta=2
     8                           	psect	text2,local,class=CODE,merge=1,delta=2
     9                           	psect	text3,local,class=CODE,merge=1,delta=2
    10                           	psect	text4,local,class=CODE,merge=1,delta=2
    11                           	psect	text5,local,class=CODE,merge=1,delta=2
    12                           	psect	text6,local,class=CODE,merge=1,delta=2
    13                           	psect	text7,local,class=CODE,merge=1,delta=2
    14                           	dabs	1,0x7E,2
    15  0000                     
    16                           ; Version 1.44
    17                           ; Generated 14/09/2017 GMT
    18                           ; 
    19                           ; Copyright © 2017, Microchip Technology Inc. and its subsidiaries ("Microchip")
    20                           ; All rights reserved.
    21                           ; 
    22                           ; This software is developed by Microchip Technology Inc. and its subsidiaries ("Microch
      +                          ip").
    23                           ; 
    24                           ; Redistribution and use in source and binary forms, with or without modification, are
    25                           ; permitted provided that the following conditions are met:
    26                           ; 
    27                           ;     1. Redistributions of source code must retain the above copyright notice, this lis
      +                          t of
    28                           ;        conditions and the following disclaimer.
    29                           ; 
    30                           ;     2. Redistributions in binary form must reproduce the above copyright notice, this 
      +                          list
    31                           ;        of conditions and the following disclaimer in the documentation and/or other
    32                           ;        materials provided with the distribution.
    33                           ; 
    34                           ;     3. Microchip's name may not be used to endorse or promote products derived from th
      +                          is
    35                           ;        software without specific prior written permission.
    36                           ; 
    37                           ; THIS SOFTWARE IS PROVIDED BY MICROCHIP "AS IS" AND ANY EXPRESS OR IMPLIED WARRANTIES,
    38                           ; INCLUDING, BUT NOT LIMITED TO, THE IMPLIED WARRANTIES OF MERCHANTABILITY AND FITNESS F
      +                          OR
    39                           ; PURPOSE ARE DISCLAIMED.  IN NO EVENT SHALL MICROCHIP BE LIABLE FOR ANY DIRECT, INDIREC
      +                          T,
    40                           ; INCIDENTAL, SPECIAL, EXEMPLARY, OR CONSEQUENTIAL DAMAGES (INCLUDING BUT NOT LIMITED TO
    41                           ; PROCUREMENT OF SUBSTITUTE GOODS OR SERVICES; LOSS OF USE, DATA OR PROFITS; OR BUSINESS
    42                           ; INTERRUPTION) HOWSOEVER CAUSED AND ON ANY THEORY OF LIABILITY, WHETHER IN CONTRACT, ST
      +                          RICT
    43                           ; LIABILITY, OR TORT (INCLUDING NEGLIGENCE OR OTHERWISE) ARISING IN ANY WAY OUT OF THE U
      +                          SE OF
    44                           ; THIS SOFTWARE, EVEN IF ADVISED OF THE POSSIBILITY OF SUCH DAMAGE.
    45                           ; 
    46                           ; 
    47                           ; Code-generator required, PIC16F18875 Definitions
    48                           ; 
    49                           ; SFR Addresses
    50  0000                     	;# 
    51  0001                     	;# 
    52  0002                     	;# 
    53  0003                     	;# 
    54  0004                     	;# 
    55  0005                     	;# 
    56  0006                     	;# 
    57  0007                     	;# 
    58  0008                     	;# 
    59  0009                     	;# 
    60  000A                     	;# 
    61  000B                     	;# 
    62  000C                     	;# 
    63  000D                     	;# 
    64  000E                     	;# 
    65  000F                     	;# 
    66  0010                     	;# 
    67  0011                     	;# 
    68  0012                     	;# 
    69  0013                     	;# 
    70  0014                     	;# 
    71  0015                     	;# 
    72  0016                     	;# 
    73  0017                     	;# 
    74  0018                     	;# 
    75  0019                     	;# 
    76  001A                     	;# 
    77  001C                     	;# 
    78  001C                     	;# 
    79  001D                     	;# 
    80  001D                     	;# 
    81  001E                     	;# 
    82  001F                     	;# 
    83  008C                     	;# 
    84  008C                     	;# 
    85  008D                     	;# 
    86  008E                     	;# 
    87  008E                     	;# 
    88  008F                     	;# 
    89  0090                     	;# 
    90  0090                     	;# 
    91  0091                     	;# 
    92  0093                     	;# 
    93  0094                     	;# 
    94  0095                     	;# 
    95  0096                     	;# 
    96  0097                     	;# 
    97  0098                     	;# 
    98  0099                     	;# 
    99  009A                     	;# 
   100  009B                     	;# 
   101  009C                     	;# 
   102  009D                     	;# 
   103  009E                     	;# 
   104  010C                     	;# 
   105  010D                     	;# 
   106  010E                     	;# 
   107  010E                     	;# 
   108  010F                     	;# 
   109  0110                     	;# 
   110  0110                     	;# 
   111  0111                     	;# 
   112  0112                     	;# 
   113  0112                     	;# 
   114  0113                     	;# 
   115  0114                     	;# 
   116  0114                     	;# 
   117  0115                     	;# 
   118  0116                     	;# 
   119  0116                     	;# 
   120  0117                     	;# 
   121  0119                     	;# 
   122  0119                     	;# 
   123  0119                     	;# 
   124  011A                     	;# 
   125  011A                     	;# 
   126  011A                     	;# 
   127  011B                     	;# 
   128  011B                     	;# 
   129  011B                     	;# 
   130  011B                     	;# 
   131  011B                     	;# 
   132  011C                     	;# 
   133  011C                     	;# 
   134  011C                     	;# 
   135  011D                     	;# 
   136  011D                     	;# 
   137  011D                     	;# 
   138  011E                     	;# 
   139  011E                     	;# 
   140  011E                     	;# 
   141  011F                     	;# 
   142  011F                     	;# 
   143  011F                     	;# 
   144  011F                     	;# 
   145  011F                     	;# 
   146  018C                     	;# 
   147  018D                     	;# 
   148  018E                     	;# 
   149  018F                     	;# 
   150  0190                     	;# 
   151  0191                     	;# 
   152  0192                     	;# 
   153  0196                     	;# 
   154  0197                     	;# 
   155  0198                     	;# 
   156  0199                     	;# 
   157  019A                     	;# 
   158  019B                     	;# 
   159  019C                     	;# 
   160  020C                     	;# 
   161  020C                     	;# 
   162  020D                     	;# 
   163  020E                     	;# 
   164  020F                     	;# 
   165  020F                     	;# 
   166  0210                     	;# 
   167  0210                     	;# 
   168  0211                     	;# 
   169  0211                     	;# 
   170  0212                     	;# 
   171  0212                     	;# 
   172  0213                     	;# 
   173  0214                     	;# 
   174  0215                     	;# 
   175  0215                     	;# 
   176  0216                     	;# 
   177  0216                     	;# 
   178  0217                     	;# 
   179  0217                     	;# 
   180  0218                     	;# 
   181  0218                     	;# 
   182  0219                     	;# 
   183  021A                     	;# 
   184  021B                     	;# 
   185  021B                     	;# 
   186  021C                     	;# 
   187  021C                     	;# 
   188  021D                     	;# 
   189  021D                     	;# 
   190  021E                     	;# 
   191  021F                     	;# 
   192  028C                     	;# 
   193  028C                     	;# 
   194  028D                     	;# 
   195  028D                     	;# 
   196  028E                     	;# 
   197  028F                     	;# 
   198  0290                     	;# 
   199  0290                     	;# 
   200  0291                     	;# 
   201  0292                     	;# 
   202  0292                     	;# 
   203  0293                     	;# 
   204  0293                     	;# 
   205  0294                     	;# 
   206  0295                     	;# 
   207  0296                     	;# 
   208  0296                     	;# 
   209  0297                     	;# 
   210  0298                     	;# 
   211  0298                     	;# 
   212  0299                     	;# 
   213  0299                     	;# 
   214  029A                     	;# 
   215  029B                     	;# 
   216  029C                     	;# 
   217  029C                     	;# 
   218  029D                     	;# 
   219  030C                     	;# 
   220  030C                     	;# 
   221  030D                     	;# 
   222  030E                     	;# 
   223  030F                     	;# 
   224  0310                     	;# 
   225  0310                     	;# 
   226  0311                     	;# 
   227  0312                     	;# 
   228  0313                     	;# 
   229  0314                     	;# 
   230  0314                     	;# 
   231  0315                     	;# 
   232  0316                     	;# 
   233  0317                     	;# 
   234  0318                     	;# 
   235  0318                     	;# 
   236  0319                     	;# 
   237  031A                     	;# 
   238  031B                     	;# 
   239  031C                     	;# 
   240  031C                     	;# 
   241  031D                     	;# 
   242  031E                     	;# 
   243  031F                     	;# 
   244  038C                     	;# 
   245  038D                     	;# 
   246  038E                     	;# 
   247  0390                     	;# 
   248  0391                     	;# 
   249  0392                     	;# 
   250  040C                     	;# 
   251  040D                     	;# 
   252  040E                     	;# 
   253  040F                     	;# 
   254  0410                     	;# 
   255  0411                     	;# 
   256  0416                     	;# 
   257  0416                     	;# 
   258  0417                     	;# 
   259  0418                     	;# 
   260  0418                     	;# 
   261  0419                     	;# 
   262  041A                     	;# 
   263  041A                     	;# 
   264  041B                     	;# 
   265  041C                     	;# 
   266  041C                     	;# 
   267  041D                     	;# 
   268  041E                     	;# 
   269  041F                     	;# 
   270  048C                     	;# 
   271  048C                     	;# 
   272  048D                     	;# 
   273  048E                     	;# 
   274  048F                     	;# 
   275  048F                     	;# 
   276  0490                     	;# 
   277  0491                     	;# 
   278  0492                     	;# 
   279  0492                     	;# 
   280  0493                     	;# 
   281  0494                     	;# 
   282  0495                     	;# 
   283  0495                     	;# 
   284  0496                     	;# 
   285  0497                     	;# 
   286  0498                     	;# 
   287  0499                     	;# 
   288  049A                     	;# 
   289  049B                     	;# 
   290  049C                     	;# 
   291  049D                     	;# 
   292  050C                     	;# 
   293  050C                     	;# 
   294  050D                     	;# 
   295  050E                     	;# 
   296  050F                     	;# 
   297  050F                     	;# 
   298  0510                     	;# 
   299  0511                     	;# 
   300  0512                     	;# 
   301  0512                     	;# 
   302  0513                     	;# 
   303  0514                     	;# 
   304  0515                     	;# 
   305  0515                     	;# 
   306  0516                     	;# 
   307  0517                     	;# 
   308  0518                     	;# 
   309  0519                     	;# 
   310  051A                     	;# 
   311  051B                     	;# 
   312  051C                     	;# 
   313  051D                     	;# 
   314  058C                     	;# 
   315  058C                     	;# 
   316  058D                     	;# 
   317  058E                     	;# 
   318  058F                     	;# 
   319  058F                     	;# 
   320  0590                     	;# 
   321  0591                     	;# 
   322  0592                     	;# 
   323  0593                     	;# 
   324  060C                     	;# 
   325  060D                     	;# 
   326  060E                     	;# 
   327  060F                     	;# 
   328  0610                     	;# 
   329  0611                     	;# 
   330  0612                     	;# 
   331  0613                     	;# 
   332  0614                     	;# 
   333  0616                     	;# 
   334  0617                     	;# 
   335  0618                     	;# 
   336  0619                     	;# 
   337  061A                     	;# 
   338  061B                     	;# 
   339  061C                     	;# 
   340  061D                     	;# 
   341  061E                     	;# 
   342  068C                     	;# 
   343  068D                     	;# 
   344  068E                     	;# 
   345  068F                     	;# 
   346  0690                     	;# 
   347  0691                     	;# 
   348  0692                     	;# 
   349  0693                     	;# 
   350  0694                     	;# 
   351  070C                     	;# 
   352  070D                     	;# 
   353  070E                     	;# 
   354  070F                     	;# 
   355  0710                     	;# 
   356  0711                     	;# 
   357  0712                     	;# 
   358  0713                     	;# 
   359  0714                     	;# 
   360  0716                     	;# 
   361  0717                     	;# 
   362  0718                     	;# 
   363  0719                     	;# 
   364  071A                     	;# 
   365  071B                     	;# 
   366  071C                     	;# 
   367  071D                     	;# 
   368  071E                     	;# 
   369  0796                     	;# 
   370  0797                     	;# 
   371  0798                     	;# 
   372  0799                     	;# 
   373  079A                     	;# 
   374  079B                     	;# 
   375  080C                     	;# 
   376  080D                     	;# 
   377  080E                     	;# 
   378  080F                     	;# 
   379  0810                     	;# 
   380  0811                     	;# 
   381  0812                     	;# 
   382  0813                     	;# 
   383  0814                     	;# 
   384  081A                     	;# 
   385  081B                     	;# 
   386  081C                     	;# 
   387  081D                     	;# 
   388  081E                     	;# 
   389  081F                     	;# 
   390  088C                     	;# 
   391  088D                     	;# 
   392  088E                     	;# 
   393  088F                     	;# 
   394  0890                     	;# 
   395  0891                     	;# 
   396  0892                     	;# 
   397  0893                     	;# 
   398  0895                     	;# 
   399  0896                     	;# 
   400  0897                     	;# 
   401  0898                     	;# 
   402  0899                     	;# 
   403  089A                     	;# 
   404  089B                     	;# 
   405  090C                     	;# 
   406  090E                     	;# 
   407  090F                     	;# 
   408  091F                     	;# 
   409  091F                     	;# 
   410  098F                     	;# 
   411  098F                     	;# 
   412  0990                     	;# 
   413  0991                     	;# 
   414  0992                     	;# 
   415  0993                     	;# 
   416  0994                     	;# 
   417  0995                     	;# 
   418  0996                     	;# 
   419  0997                     	;# 
   420  0E0F                     	;# 
   421  0E10                     	;# 
   422  0E11                     	;# 
   423  0E12                     	;# 
   424  0E13                     	;# 
   425  0E14                     	;# 
   426  0E15                     	;# 
   427  0E16                     	;# 
   428  0E17                     	;# 
   429  0E18                     	;# 
   430  0E19                     	;# 
   431  0E1A                     	;# 
   432  0E1B                     	;# 
   433  0E1C                     	;# 
   434  0E1D                     	;# 
   435  0E1E                     	;# 
   436  0E1F                     	;# 
   437  0E20                     	;# 
   438  0E21                     	;# 
   439  0E22                     	;# 
   440  0E23                     	;# 
   441  0E24                     	;# 
   442  0E25                     	;# 
   443  0E26                     	;# 
   444  0E27                     	;# 
   445  0E28                     	;# 
   446  0E29                     	;# 
   447  0E2A                     	;# 
   448  0E2B                     	;# 
   449  0E2C                     	;# 
   450  0E2D                     	;# 
   451  0E2E                     	;# 
   452  0E2F                     	;# 
   453  0E30                     	;# 
   454  0E31                     	;# 
   455  0E32                     	;# 
   456  0E33                     	;# 
   457  0E34                     	;# 
   458  0E35                     	;# 
   459  0E36                     	;# 
   460  0E37                     	;# 
   461  0E8F                     	;# 
   462  0E90                     	;# 
   463  0E91                     	;# 
   464  0E92                     	;# 
   465  0E93                     	;# 
   466  0E94                     	;# 
   467  0E95                     	;# 
   468  0E96                     	;# 
   469  0E97                     	;# 
   470  0E9C                     	;# 
   471  0E9D                     	;# 
   472  0E9E                     	;# 
   473  0EA1                     	;# 
   474  0EA2                     	;# 
   475  0EA3                     	;# 
   476  0EA4                     	;# 
   477  0EA5                     	;# 
   478  0EA9                     	;# 
   479  0EAA                     	;# 
   480  0EAB                     	;# 
   481  0EAC                     	;# 
   482  0EB1                     	;# 
   483  0EB2                     	;# 
   484  0EB3                     	;# 
   485  0EB8                     	;# 
   486  0EB9                     	;# 
   487  0EBA                     	;# 
   488  0EBB                     	;# 
   489  0EBC                     	;# 
   490  0EBD                     	;# 
   491  0EBE                     	;# 
   492  0EC3                     	;# 
   493  0EC5                     	;# 
   494  0EC6                     	;# 
   495  0EC7                     	;# 
   496  0EC8                     	;# 
   497  0EC9                     	;# 
   498  0ECA                     	;# 
   499  0ECB                     	;# 
   500  0ECC                     	;# 
   501  0F10                     	;# 
   502  0F11                     	;# 
   503  0F12                     	;# 
   504  0F13                     	;# 
   505  0F14                     	;# 
   506  0F15                     	;# 
   507  0F16                     	;# 
   508  0F17                     	;# 
   509  0F18                     	;# 
   510  0F19                     	;# 
   511  0F1A                     	;# 
   512  0F1B                     	;# 
   513  0F1C                     	;# 
   514  0F1D                     	;# 
   515  0F1E                     	;# 
   516  0F1F                     	;# 
   517  0F20                     	;# 
   518  0F21                     	;# 
   519  0F22                     	;# 
   520  0F23                     	;# 
   521  0F24                     	;# 
   522  0F25                     	;# 
   523  0F26                     	;# 
   524  0F27                     	;# 
   525  0F28                     	;# 
   526  0F29                     	;# 
   527  0F2A                     	;# 
   528  0F2B                     	;# 
   529  0F2C                     	;# 
   530  0F2D                     	;# 
   531  0F2E                     	;# 
   532  0F2F                     	;# 
   533  0F30                     	;# 
   534  0F31                     	;# 
   535  0F32                     	;# 
   536  0F38                     	;# 
   537  0F39                     	;# 
   538  0F3A                     	;# 
   539  0F3B                     	;# 
   540  0F3C                     	;# 
   541  0F3D                     	;# 
   542  0F3E                     	;# 
   543  0F3F                     	;# 
   544  0F40                     	;# 
   545  0F41                     	;# 
   546  0F43                     	;# 
   547  0F44                     	;# 
   548  0F45                     	;# 
   549  0F46                     	;# 
   550  0F47                     	;# 
   551  0F48                     	;# 
   552  0F49                     	;# 
   553  0F4A                     	;# 
   554  0F4B                     	;# 
   555  0F4C                     	;# 
   556  0F4E                     	;# 
   557  0F4F                     	;# 
   558  0F50                     	;# 
   559  0F51                     	;# 
   560  0F52                     	;# 
   561  0F53                     	;# 
   562  0F54                     	;# 
   563  0F55                     	;# 
   564  0F56                     	;# 
   565  0F57                     	;# 
   566  0F59                     	;# 
   567  0F5A                     	;# 
   568  0F5B                     	;# 
   569  0F5C                     	;# 
   570  0F5D                     	;# 
   571  0F61                     	;# 
   572  0F62                     	;# 
   573  0F64                     	;# 
   574  0F65                     	;# 
   575  0F66                     	;# 
   576  0F67                     	;# 
   577  0F68                     	;# 
   578  0F69                     	;# 
   579  0F6A                     	;# 
   580  0F6B                     	;# 
   581  0F6C                     	;# 
   582  0F6D                     	;# 
   583  0FE4                     	;# 
   584  0FE5                     	;# 
   585  0FE6                     	;# 
   586  0FE7                     	;# 
   587  0FE8                     	;# 
   588  0FE9                     	;# 
   589  0FEA                     	;# 
   590  0FEB                     	;# 
   591  0FED                     	;# 
   592  0FEE                     	;# 
   593  0FEF                     	;# 
   594  0000                     	;# 
   595  0001                     	;# 
   596  0002                     	;# 
   597  0003                     	;# 
   598  0004                     	;# 
   599  0005                     	;# 
   600  0006                     	;# 
   601  0007                     	;# 
   602  0008                     	;# 
   603  0009                     	;# 
   604  000A                     	;# 
   605  000B                     	;# 
   606  000C                     	;# 
   607  000D                     	;# 
   608  000E                     	;# 
   609  000F                     	;# 
   610  0010                     	;# 
   611  0011                     	;# 
   612  0012                     	;# 
   613  0013                     	;# 
   614  0014                     	;# 
   615  0015                     	;# 
   616  0016                     	;# 
   617  0017                     	;# 
   618  0018                     	;# 
   619  0019                     	;# 
   620  001A                     	;# 
   621  001C                     	;# 
   622  001C                     	;# 
   623  001D                     	;# 
   624  001D                     	;# 
   625  001E                     	;# 
   626  001F                     	;# 
   627  008C                     	;# 
   628  008C                     	;# 
   629  008D                     	;# 
   630  008E                     	;# 
   631  008E                     	;# 
   632  008F                     	;# 
   633  0090                     	;# 
   634  0090                     	;# 
   635  0091                     	;# 
   636  0093                     	;# 
   637  0094                     	;# 
   638  0095                     	;# 
   639  0096                     	;# 
   640  0097                     	;# 
   641  0098                     	;# 
   642  0099                     	;# 
   643  009A                     	;# 
   644  009B                     	;# 
   645  009C                     	;# 
   646  009D                     	;# 
   647  009E                     	;# 
   648  010C                     	;# 
   649  010D                     	;# 
   650  010E                     	;# 
   651  010E                     	;# 
   652  010F                     	;# 
   653  0110                     	;# 
   654  0110                     	;# 
   655  0111                     	;# 
   656  0112                     	;# 
   657  0112                     	;# 
   658  0113                     	;# 
   659  0114                     	;# 
   660  0114                     	;# 
   661  0115                     	;# 
   662  0116                     	;# 
   663  0116                     	;# 
   664  0117                     	;# 
   665  0119                     	;# 
   666  0119                     	;# 
   667  0119                     	;# 
   668  011A                     	;# 
   669  011A                     	;# 
   670  011A                     	;# 
   671  011B                     	;# 
   672  011B                     	;# 
   673  011B                     	;# 
   674  011B                     	;# 
   675  011B                     	;# 
   676  011C                     	;# 
   677  011C                     	;# 
   678  011C                     	;# 
   679  011D                     	;# 
   680  011D                     	;# 
   681  011D                     	;# 
   682  011E                     	;# 
   683  011E                     	;# 
   684  011E                     	;# 
   685  011F                     	;# 
   686  011F                     	;# 
   687  011F                     	;# 
   688  011F                     	;# 
   689  011F                     	;# 
   690  018C                     	;# 
   691  018D                     	;# 
   692  018E                     	;# 
   693  018F                     	;# 
   694  0190                     	;# 
   695  0191                     	;# 
   696  0192                     	;# 
   697  0196                     	;# 
   698  0197                     	;# 
   699  0198                     	;# 
   700  0199                     	;# 
   701  019A                     	;# 
   702  019B                     	;# 
   703  019C                     	;# 
   704  020C                     	;# 
   705  020C                     	;# 
   706  020D                     	;# 
   707  020E                     	;# 
   708  020F                     	;# 
   709  020F                     	;# 
   710  0210                     	;# 
   711  0210                     	;# 
   712  0211                     	;# 
   713  0211                     	;# 
   714  0212                     	;# 
   715  0212                     	;# 
   716  0213                     	;# 
   717  0214                     	;# 
   718  0215                     	;# 
   719  0215                     	;# 
   720  0216                     	;# 
   721  0216                     	;# 
   722  0217                     	;# 
   723  0217                     	;# 
   724  0218                     	;# 
   725  0218                     	;# 
   726  0219                     	;# 
   727  021A                     	;# 
   728  021B                     	;# 
   729  021B                     	;# 
   730  021C                     	;# 
   731  021C                     	;# 
   732  021D                     	;# 
   733  021D                     	;# 
   734  021E                     	;# 
   735  021F                     	;# 
   736  028C                     	;# 
   737  028C                     	;# 
   738  028D                     	;# 
   739  028D                     	;# 
   740  028E                     	;# 
   741  028F                     	;# 
   742  0290                     	;# 
   743  0290                     	;# 
   744  0291                     	;# 
   745  0292                     	;# 
   746  0292                     	;# 
   747  0293                     	;# 
   748  0293                     	;# 
   749  0294                     	;# 
   750  0295                     	;# 
   751  0296                     	;# 
   752  0296                     	;# 
   753  0297                     	;# 
   754  0298                     	;# 
   755  0298                     	;# 
   756  0299                     	;# 
   757  0299                     	;# 
   758  029A                     	;# 
   759  029B                     	;# 
   760  029C                     	;# 
   761  029C                     	;# 
   762  029D                     	;# 
   763  030C                     	;# 
   764  030C                     	;# 
   765  030D                     	;# 
   766  030E                     	;# 
   767  030F                     	;# 
   768  0310                     	;# 
   769  0310                     	;# 
   770  0311                     	;# 
   771  0312                     	;# 
   772  0313                     	;# 
   773  0314                     	;# 
   774  0314                     	;# 
   775  0315                     	;# 
   776  0316                     	;# 
   777  0317                     	;# 
   778  0318                     	;# 
   779  0318                     	;# 
   780  0319                     	;# 
   781  031A                     	;# 
   782  031B                     	;# 
   783  031C                     	;# 
   784  031C                     	;# 
   785  031D                     	;# 
   786  031E                     	;# 
   787  031F                     	;# 
   788  038C                     	;# 
   789  038D                     	;# 
   790  038E                     	;# 
   791  0390                     	;# 
   792  0391                     	;# 
   793  0392                     	;# 
   794  040C                     	;# 
   795  040D                     	;# 
   796  040E                     	;# 
   797  040F                     	;# 
   798  0410                     	;# 
   799  0411                     	;# 
   800  0416                     	;# 
   801  0416                     	;# 
   802  0417                     	;# 
   803  0418                     	;# 
   804  0418                     	;# 
   805  0419                     	;# 
   806  041A                     	;# 
   807  041A                     	;# 
   808  041B                     	;# 
   809  041C                     	;# 
   810  041C                     	;# 
   811  041D                     	;# 
   812  041E                     	;# 
   813  041F                     	;# 
   814  048C                     	;# 
   815  048C                     	;# 
   816  048D                     	;# 
   817  048E                     	;# 
   818  048F                     	;# 
   819  048F                     	;# 
   820  0490                     	;# 
   821  0491                     	;# 
   822  0492                     	;# 
   823  0492                     	;# 
   824  0493                     	;# 
   825  0494                     	;# 
   826  0495                     	;# 
   827  0495                     	;# 
   828  0496                     	;# 
   829  0497                     	;# 
   830  0498                     	;# 
   831  0499                     	;# 
   832  049A                     	;# 
   833  049B                     	;# 
   834  049C                     	;# 
   835  049D                     	;# 
   836  050C                     	;# 
   837  050C                     	;# 
   838  050D                     	;# 
   839  050E                     	;# 
   840  050F                     	;# 
   841  050F                     	;# 
   842  0510                     	;# 
   843  0511                     	;# 
   844  0512                     	;# 
   845  0512                     	;# 
   846  0513                     	;# 
   847  0514                     	;# 
   848  0515                     	;# 
   849  0515                     	;# 
   850  0516                     	;# 
   851  0517                     	;# 
   852  0518                     	;# 
   853  0519                     	;# 
   854  051A                     	;# 
   855  051B                     	;# 
   856  051C                     	;# 
   857  051D                     	;# 
   858  058C                     	;# 
   859  058C                     	;# 
   860  058D                     	;# 
   861  058E                     	;# 
   862  058F                     	;# 
   863  058F                     	;# 
   864  0590                     	;# 
   865  0591                     	;# 
   866  0592                     	;# 
   867  0593                     	;# 
   868  060C                     	;# 
   869  060D                     	;# 
   870  060E                     	;# 
   871  060F                     	;# 
   872  0610                     	;# 
   873  0611                     	;# 
   874  0612                     	;# 
   875  0613                     	;# 
   876  0614                     	;# 
   877  0616                     	;# 
   878  0617                     	;# 
   879  0618                     	;# 
   880  0619                     	;# 
   881  061A                     	;# 
   882  061B                     	;# 
   883  061C                     	;# 
   884  061D                     	;# 
   885  061E                     	;# 
   886  068C                     	;# 
   887  068D                     	;# 
   888  068E                     	;# 
   889  068F                     	;# 
   890  0690                     	;# 
   891  0691                     	;# 
   892  0692                     	;# 
   893  0693                     	;# 
   894  0694                     	;# 
   895  070C                     	;# 
   896  070D                     	;# 
   897  070E                     	;# 
   898  070F                     	;# 
   899  0710                     	;# 
   900  0711                     	;# 
   901  0712                     	;# 
   902  0713                     	;# 
   903  0714                     	;# 
   904  0716                     	;# 
   905  0717                     	;# 
   906  0718                     	;# 
   907  0719                     	;# 
   908  071A                     	;# 
   909  071B                     	;# 
   910  071C                     	;# 
   911  071D                     	;# 
   912  071E                     	;# 
   913  0796                     	;# 
   914  0797                     	;# 
   915  0798                     	;# 
   916  0799                     	;# 
   917  079A                     	;# 
   918  079B                     	;# 
   919  080C                     	;# 
   920  080D                     	;# 
   921  080E                     	;# 
   922  080F                     	;# 
   923  0810                     	;# 
   924  0811                     	;# 
   925  0812                     	;# 
   926  0813                     	;# 
   927  0814                     	;# 
   928  081A                     	;# 
   929  081B                     	;# 
   930  081C                     	;# 
   931  081D                     	;# 
   932  081E                     	;# 
   933  081F                     	;# 
   934  088C                     	;# 
   935  088D                     	;# 
   936  088E                     	;# 
   937  088F                     	;# 
   938  0890                     	;# 
   939  0891                     	;# 
   940  0892                     	;# 
   941  0893                     	;# 
   942  0895                     	;# 
   943  0896                     	;# 
   944  0897                     	;# 
   945  0898                     	;# 
   946  0899                     	;# 
   947  089A                     	;# 
   948  089B                     	;# 
   949  090C                     	;# 
   950  090E                     	;# 
   951  090F                     	;# 
   952  091F                     	;# 
   953  091F                     	;# 
   954  098F                     	;# 
   955  098F                     	;# 
   956  0990                     	;# 
   957  0991                     	;# 
   958  0992                     	;# 
   959  0993                     	;# 
   960  0994                     	;# 
   961  0995                     	;# 
   962  0996                     	;# 
   963  0997                     	;# 
   964  0E0F                     	;# 
   965  0E10                     	;# 
   966  0E11                     	;# 
   967  0E12                     	;# 
   968  0E13                     	;# 
   969  0E14                     	;# 
   970  0E15                     	;# 
   971  0E16                     	;# 
   972  0E17                     	;# 
   973  0E18                     	;# 
   974  0E19                     	;# 
   975  0E1A                     	;# 
   976  0E1B                     	;# 
   977  0E1C                     	;# 
   978  0E1D                     	;# 
   979  0E1E                     	;# 
   980  0E1F                     	;# 
   981  0E20                     	;# 
   982  0E21                     	;# 
   983  0E22                     	;# 
   984  0E23                     	;# 
   985  0E24                     	;# 
   986  0E25                     	;# 
   987  0E26                     	;# 
   988  0E27                     	;# 
   989  0E28                     	;# 
   990  0E29                     	;# 
   991  0E2A                     	;# 
   992  0E2B                     	;# 
   993  0E2C                     	;# 
   994  0E2D                     	;# 
   995  0E2E                     	;# 
   996  0E2F                     	;# 
   997  0E30                     	;# 
   998  0E31                     	;# 
   999  0E32                     	;# 
  1000  0E33                     	;# 
  1001  0E34                     	;# 
  1002  0E35                     	;# 
  1003  0E36                     	;# 
  1004  0E37                     	;# 
  1005  0E8F                     	;# 
  1006  0E90                     	;# 
  1007  0E91                     	;# 
  1008  0E92                     	;# 
  1009  0E93                     	;# 
  1010  0E94                     	;# 
  1011  0E95                     	;# 
  1012  0E96                     	;# 
  1013  0E97                     	;# 
  1014  0E9C                     	;# 
  1015  0E9D                     	;# 
  1016  0E9E                     	;# 
  1017  0EA1                     	;# 
  1018  0EA2                     	;# 
  1019  0EA3                     	;# 
  1020  0EA4                     	;# 
  1021  0EA5                     	;# 
  1022  0EA9                     	;# 
  1023  0EAA                     	;# 
  1024  0EAB                     	;# 
  1025  0EAC                     	;# 
  1026  0EB1                     	;# 
  1027  0EB2                     	;# 
  1028  0EB3                     	;# 
  1029  0EB8                     	;# 
  1030  0EB9                     	;# 
  1031  0EBA                     	;# 
  1032  0EBB                     	;# 
  1033  0EBC                     	;# 
  1034  0EBD                     	;# 
  1035  0EBE                     	;# 
  1036  0EC3                     	;# 
  1037  0EC5                     	;# 
  1038  0EC6                     	;# 
  1039  0EC7                     	;# 
  1040  0EC8                     	;# 
  1041  0EC9                     	;# 
  1042  0ECA                     	;# 
  1043  0ECB                     	;# 
  1044  0ECC                     	;# 
  1045  0F10                     	;# 
  1046  0F11                     	;# 
  1047  0F12                     	;# 
  1048  0F13                     	;# 
  1049  0F14                     	;# 
  1050  0F15                     	;# 
  1051  0F16                     	;# 
  1052  0F17                     	;# 
  1053  0F18                     	;# 
  1054  0F19                     	;# 
  1055  0F1A                     	;# 
  1056  0F1B                     	;# 
  1057  0F1C                     	;# 
  1058  0F1D                     	;# 
  1059  0F1E                     	;# 
  1060  0F1F                     	;# 
  1061  0F20                     	;# 
  1062  0F21                     	;# 
  1063  0F22                     	;# 
  1064  0F23                     	;# 
  1065  0F24                     	;# 
  1066  0F25                     	;# 
  1067  0F26                     	;# 
  1068  0F27                     	;# 
  1069  0F28                     	;# 
  1070  0F29                     	;# 
  1071  0F2A                     	;# 
  1072  0F2B                     	;# 
  1073  0F2C                     	;# 
  1074  0F2D                     	;# 
  1075  0F2E                     	;# 
  1076  0F2F                     	;# 
  1077  0F30                     	;# 
  1078  0F31                     	;# 
  1079  0F32                     	;# 
  1080  0F38                     	;# 
  1081  0F39                     	;# 
  1082  0F3A                     	;# 
  1083  0F3B                     	;# 
  1084  0F3C                     	;# 
  1085  0F3D                     	;# 
  1086  0F3E                     	;# 
  1087  0F3F                     	;# 
  1088  0F40                     	;# 
  1089  0F41                     	;# 
  1090  0F43                     	;# 
  1091  0F44                     	;# 
  1092  0F45                     	;# 
  1093  0F46                     	;# 
  1094  0F47                     	;# 
  1095  0F48                     	;# 
  1096  0F49                     	;# 
  1097  0F4A                     	;# 
  1098  0F4B                     	;# 
  1099  0F4C                     	;# 
  1100  0F4E                     	;# 
  1101  0F4F                     	;# 
  1102  0F50                     	;# 
  1103  0F51                     	;# 
  1104  0F52                     	;# 
  1105  0F53                     	;# 
  1106  0F54                     	;# 
  1107  0F55                     	;# 
  1108  0F56                     	;# 
  1109  0F57                     	;# 
  1110  0F59                     	;# 
  1111  0F5A                     	;# 
  1112  0F5B                     	;# 
  1113  0F5C                     	;# 
  1114  0F5D                     	;# 
  1115  0F61                     	;# 
  1116  0F62                     	;# 
  1117  0F64                     	;# 
  1118  0F65                     	;# 
  1119  0F66                     	;# 
  1120  0F67                     	;# 
  1121  0F68                     	;# 
  1122  0F69                     	;# 
  1123  0F6A                     	;# 
  1124  0F6B                     	;# 
  1125  0F6C                     	;# 
  1126  0F6D                     	;# 
  1127  0FE4                     	;# 
  1128  0FE5                     	;# 
  1129  0FE6                     	;# 
  1130  0FE7                     	;# 
  1131  0FE8                     	;# 
  1132  0FE9                     	;# 
  1133  0FEA                     	;# 
  1134  0FEB                     	;# 
  1135  0FED                     	;# 
  1136  0FEE                     	;# 
  1137  0FEF                     	;# 
  1138  0000                     	;# 
  1139  0001                     	;# 
  1140  0002                     	;# 
  1141  0003                     	;# 
  1142  0004                     	;# 
  1143  0005                     	;# 
  1144  0006                     	;# 
  1145  0007                     	;# 
  1146  0008                     	;# 
  1147  0009                     	;# 
  1148  000A                     	;# 
  1149  000B                     	;# 
  1150  000C                     	;# 
  1151  000D                     	;# 
  1152  000E                     	;# 
  1153  000F                     	;# 
  1154  0010                     	;# 
  1155  0011                     	;# 
  1156  0012                     	;# 
  1157  0013                     	;# 
  1158  0014                     	;# 
  1159  0015                     	;# 
  1160  0016                     	;# 
  1161  0017                     	;# 
  1162  0018                     	;# 
  1163  0019                     	;# 
  1164  001A                     	;# 
  1165  001C                     	;# 
  1166  001C                     	;# 
  1167  001D                     	;# 
  1168  001D                     	;# 
  1169  001E                     	;# 
  1170  001F                     	;# 
  1171  008C                     	;# 
  1172  008C                     	;# 
  1173  008D                     	;# 
  1174  008E                     	;# 
  1175  008E                     	;# 
  1176  008F                     	;# 
  1177  0090                     	;# 
  1178  0090                     	;# 
  1179  0091                     	;# 
  1180  0093                     	;# 
  1181  0094                     	;# 
  1182  0095                     	;# 
  1183  0096                     	;# 
  1184  0097                     	;# 
  1185  0098                     	;# 
  1186  0099                     	;# 
  1187  009A                     	;# 
  1188  009B                     	;# 
  1189  009C                     	;# 
  1190  009D                     	;# 
  1191  009E                     	;# 
  1192  010C                     	;# 
  1193  010D                     	;# 
  1194  010E                     	;# 
  1195  010E                     	;# 
  1196  010F                     	;# 
  1197  0110                     	;# 
  1198  0110                     	;# 
  1199  0111                     	;# 
  1200  0112                     	;# 
  1201  0112                     	;# 
  1202  0113                     	;# 
  1203  0114                     	;# 
  1204  0114                     	;# 
  1205  0115                     	;# 
  1206  0116                     	;# 
  1207  0116                     	;# 
  1208  0117                     	;# 
  1209  0119                     	;# 
  1210  0119                     	;# 
  1211  0119                     	;# 
  1212  011A                     	;# 
  1213  011A                     	;# 
  1214  011A                     	;# 
  1215  011B                     	;# 
  1216  011B                     	;# 
  1217  011B                     	;# 
  1218  011B                     	;# 
  1219  011B                     	;# 
  1220  011C                     	;# 
  1221  011C                     	;# 
  1222  011C                     	;# 
  1223  011D                     	;# 
  1224  011D                     	;# 
  1225  011D                     	;# 
  1226  011E                     	;# 
  1227  011E                     	;# 
  1228  011E                     	;# 
  1229  011F                     	;# 
  1230  011F                     	;# 
  1231  011F                     	;# 
  1232  011F                     	;# 
  1233  011F                     	;# 
  1234  018C                     	;# 
  1235  018D                     	;# 
  1236  018E                     	;# 
  1237  018F                     	;# 
  1238  0190                     	;# 
  1239  0191                     	;# 
  1240  0192                     	;# 
  1241  0196                     	;# 
  1242  0197                     	;# 
  1243  0198                     	;# 
  1244  0199                     	;# 
  1245  019A                     	;# 
  1246  019B                     	;# 
  1247  019C                     	;# 
  1248  020C                     	;# 
  1249  020C                     	;# 
  1250  020D                     	;# 
  1251  020E                     	;# 
  1252  020F                     	;# 
  1253  020F                     	;# 
  1254  0210                     	;# 
  1255  0210                     	;# 
  1256  0211                     	;# 
  1257  0211                     	;# 
  1258  0212                     	;# 
  1259  0212                     	;# 
  1260  0213                     	;# 
  1261  0214                     	;# 
  1262  0215                     	;# 
  1263  0215                     	;# 
  1264  0216                     	;# 
  1265  0216                     	;# 
  1266  0217                     	;# 
  1267  0217                     	;# 
  1268  0218                     	;# 
  1269  0218                     	;# 
  1270  0219                     	;# 
  1271  021A                     	;# 
  1272  021B                     	;# 
  1273  021B                     	;# 
  1274  021C                     	;# 
  1275  021C                     	;# 
  1276  021D                     	;# 
  1277  021D                     	;# 
  1278  021E                     	;# 
  1279  021F                     	;# 
  1280  028C                     	;# 
  1281  028C                     	;# 
  1282  028D                     	;# 
  1283  028D                     	;# 
  1284  028E                     	;# 
  1285  028F                     	;# 
  1286  0290                     	;# 
  1287  0290                     	;# 
  1288  0291                     	;# 
  1289  0292                     	;# 
  1290  0292                     	;# 
  1291  0293                     	;# 
  1292  0293                     	;# 
  1293  0294                     	;# 
  1294  0295                     	;# 
  1295  0296                     	;# 
  1296  0296                     	;# 
  1297  0297                     	;# 
  1298  0298                     	;# 
  1299  0298                     	;# 
  1300  0299                     	;# 
  1301  0299                     	;# 
  1302  029A                     	;# 
  1303  029B                     	;# 
  1304  029C                     	;# 
  1305  029C                     	;# 
  1306  029D                     	;# 
  1307  030C                     	;# 
  1308  030C                     	;# 
  1309  030D                     	;# 
  1310  030E                     	;# 
  1311  030F                     	;# 
  1312  0310                     	;# 
  1313  0310                     	;# 
  1314  0311                     	;# 
  1315  0312                     	;# 
  1316  0313                     	;# 
  1317  0314                     	;# 
  1318  0314                     	;# 
  1319  0315                     	;# 
  1320  0316                     	;# 
  1321  0317                     	;# 
  1322  0318                     	;# 
  1323  0318                     	;# 
  1324  0319                     	;# 
  1325  031A                     	;# 
  1326  031B                     	;# 
  1327  031C                     	;# 
  1328  031C                     	;# 
  1329  031D                     	;# 
  1330  031E                     	;# 
  1331  031F                     	;# 
  1332  038C                     	;# 
  1333  038D                     	;# 
  1334  038E                     	;# 
  1335  0390                     	;# 
  1336  0391                     	;# 
  1337  0392                     	;# 
  1338  040C                     	;# 
  1339  040D                     	;# 
  1340  040E                     	;# 
  1341  040F                     	;# 
  1342  0410                     	;# 
  1343  0411                     	;# 
  1344  0416                     	;# 
  1345  0416                     	;# 
  1346  0417                     	;# 
  1347  0418                     	;# 
  1348  0418                     	;# 
  1349  0419                     	;# 
  1350  041A                     	;# 
  1351  041A                     	;# 
  1352  041B                     	;# 
  1353  041C                     	;# 
  1354  041C                     	;# 
  1355  041D                     	;# 
  1356  041E                     	;# 
  1357  041F                     	;# 
  1358  048C                     	;# 
  1359  048C                     	;# 
  1360  048D                     	;# 
  1361  048E                     	;# 
  1362  048F                     	;# 
  1363  048F                     	;# 
  1364  0490                     	;# 
  1365  0491                     	;# 
  1366  0492                     	;# 
  1367  0492                     	;# 
  1368  0493                     	;# 
  1369  0494                     	;# 
  1370  0495                     	;# 
  1371  0495                     	;# 
  1372  0496                     	;# 
  1373  0497                     	;# 
  1374  0498                     	;# 
  1375  0499                     	;# 
  1376  049A                     	;# 
  1377  049B                     	;# 
  1378  049C                     	;# 
  1379  049D                     	;# 
  1380  050C                     	;# 
  1381  050C                     	;# 
  1382  050D                     	;# 
  1383  050E                     	;# 
  1384  050F                     	;# 
  1385  050F                     	;# 
  1386  0510                     	;# 
  1387  0511                     	;# 
  1388  0512                     	;# 
  1389  0512                     	;# 
  1390  0513                     	;# 
  1391  0514                     	;# 
  1392  0515                     	;# 
  1393  0515                     	;# 
  1394  0516                     	;# 
  1395  0517                     	;# 
  1396  0518                     	;# 
  1397  0519                     	;# 
  1398  051A                     	;# 
  1399  051B                     	;# 
  1400  051C                     	;# 
  1401  051D                     	;# 
  1402  058C                     	;# 
  1403  058C                     	;# 
  1404  058D                     	;# 
  1405  058E                     	;# 
  1406  058F                     	;# 
  1407  058F                     	;# 
  1408  0590                     	;# 
  1409  0591                     	;# 
  1410  0592                     	;# 
  1411  0593                     	;# 
  1412  060C                     	;# 
  1413  060D                     	;# 
  1414  060E                     	;# 
  1415  060F                     	;# 
  1416  0610                     	;# 
  1417  0611                     	;# 
  1418  0612                     	;# 
  1419  0613                     	;# 
  1420  0614                     	;# 
  1421  0616                     	;# 
  1422  0617                     	;# 
  1423  0618                     	;# 
  1424  0619                     	;# 
  1425  061A                     	;# 
  1426  061B                     	;# 
  1427  061C                     	;# 
  1428  061D                     	;# 
  1429  061E                     	;# 
  1430  068C                     	;# 
  1431  068D                     	;# 
  1432  068E                     	;# 
  1433  068F                     	;# 
  1434  0690                     	;# 
  1435  0691                     	;# 
  1436  0692                     	;# 
  1437  0693                     	;# 
  1438  0694                     	;# 
  1439  070C                     	;# 
  1440  070D                     	;# 
  1441  070E                     	;# 
  1442  070F                     	;# 
  1443  0710                     	;# 
  1444  0711                     	;# 
  1445  0712                     	;# 
  1446  0713                     	;# 
  1447  0714                     	;# 
  1448  0716                     	;# 
  1449  0717                     	;# 
  1450  0718                     	;# 
  1451  0719                     	;# 
  1452  071A                     	;# 
  1453  071B                     	;# 
  1454  071C                     	;# 
  1455  071D                     	;# 
  1456  071E                     	;# 
  1457  0796                     	;# 
  1458  0797                     	;# 
  1459  0798                     	;# 
  1460  0799                     	;# 
  1461  079A                     	;# 
  1462  079B                     	;# 
  1463  080C                     	;# 
  1464  080D                     	;# 
  1465  080E                     	;# 
  1466  080F                     	;# 
  1467  0810                     	;# 
  1468  0811                     	;# 
  1469  0812                     	;# 
  1470  0813                     	;# 
  1471  0814                     	;# 
  1472  081A                     	;# 
  1473  081B                     	;# 
  1474  081C                     	;# 
  1475  081D                     	;# 
  1476  081E                     	;# 
  1477  081F                     	;# 
  1478  088C                     	;# 
  1479  088D                     	;# 
  1480  088E                     	;# 
  1481  088F                     	;# 
  1482  0890                     	;# 
  1483  0891                     	;# 
  1484  0892                     	;# 
  1485  0893                     	;# 
  1486  0895                     	;# 
  1487  0896                     	;# 
  1488  0897                     	;# 
  1489  0898                     	;# 
  1490  0899                     	;# 
  1491  089A                     	;# 
  1492  089B                     	;# 
  1493  090C                     	;# 
  1494  090E                     	;# 
  1495  090F                     	;# 
  1496  091F                     	;# 
  1497  091F                     	;# 
  1498  098F                     	;# 
  1499  098F                     	;# 
  1500  0990                     	;# 
  1501  0991                     	;# 
  1502  0992                     	;# 
  1503  0993                     	;# 
  1504  0994                     	;# 
  1505  0995                     	;# 
  1506  0996                     	;# 
  1507  0997                     	;# 
  1508  0E0F                     	;# 
  1509  0E10                     	;# 
  1510  0E11                     	;# 
  1511  0E12                     	;# 
  1512  0E13                     	;# 
  1513  0E14                     	;# 
  1514  0E15                     	;# 
  1515  0E16                     	;# 
  1516  0E17                     	;# 
  1517  0E18                     	;# 
  1518  0E19                     	;# 
  1519  0E1A                     	;# 
  1520  0E1B                     	;# 
  1521  0E1C                     	;# 
  1522  0E1D                     	;# 
  1523  0E1E                     	;# 
  1524  0E1F                     	;# 
  1525  0E20                     	;# 
  1526  0E21                     	;# 
  1527  0E22                     	;# 
  1528  0E23                     	;# 
  1529  0E24                     	;# 
  1530  0E25                     	;# 
  1531  0E26                     	;# 
  1532  0E27                     	;# 
  1533  0E28                     	;# 
  1534  0E29                     	;# 
  1535  0E2A                     	;# 
  1536  0E2B                     	;# 
  1537  0E2C                     	;# 
  1538  0E2D                     	;# 
  1539  0E2E                     	;# 
  1540  0E2F                     	;# 
  1541  0E30                     	;# 
  1542  0E31                     	;# 
  1543  0E32                     	;# 
  1544  0E33                     	;# 
  1545  0E34                     	;# 
  1546  0E35                     	;# 
  1547  0E36                     	;# 
  1548  0E37                     	;# 
  1549  0E8F                     	;# 
  1550  0E90                     	;# 
  1551  0E91                     	;# 
  1552  0E92                     	;# 
  1553  0E93                     	;# 
  1554  0E94                     	;# 
  1555  0E95                     	;# 
  1556  0E96                     	;# 
  1557  0E97                     	;# 
  1558  0E9C                     	;# 
  1559  0E9D                     	;# 
  1560  0E9E                     	;# 
  1561  0EA1                     	;# 
  1562  0EA2                     	;# 
  1563  0EA3                     	;# 
  1564  0EA4                     	;# 
  1565  0EA5                     	;# 
  1566  0EA9                     	;# 
  1567  0EAA                     	;# 
  1568  0EAB                     	;# 
  1569  0EAC                     	;# 
  1570  0EB1                     	;# 
  1571  0EB2                     	;# 
  1572  0EB3                     	;# 
  1573  0EB8                     	;# 
  1574  0EB9                     	;# 
  1575  0EBA                     	;# 
  1576  0EBB                     	;# 
  1577  0EBC                     	;# 
  1578  0EBD                     	;# 
  1579  0EBE                     	;# 
  1580  0EC3                     	;# 
  1581  0EC5                     	;# 
  1582  0EC6                     	;# 
  1583  0EC7                     	;# 
  1584  0EC8                     	;# 
  1585  0EC9                     	;# 
  1586  0ECA                     	;# 
  1587  0ECB                     	;# 
  1588  0ECC                     	;# 
  1589  0F10                     	;# 
  1590  0F11                     	;# 
  1591  0F12                     	;# 
  1592  0F13                     	;# 
  1593  0F14                     	;# 
  1594  0F15                     	;# 
  1595  0F16                     	;# 
  1596  0F17                     	;# 
  1597  0F18                     	;# 
  1598  0F19                     	;# 
  1599  0F1A                     	;# 
  1600  0F1B                     	;# 
  1601  0F1C                     	;# 
  1602  0F1D                     	;# 
  1603  0F1E                     	;# 
  1604  0F1F                     	;# 
  1605  0F20                     	;# 
  1606  0F21                     	;# 
  1607  0F22                     	;# 
  1608  0F23                     	;# 
  1609  0F24                     	;# 
  1610  0F25                     	;# 
  1611  0F26                     	;# 
  1612  0F27                     	;# 
  1613  0F28                     	;# 
  1614  0F29                     	;# 
  1615  0F2A                     	;# 
  1616  0F2B                     	;# 
  1617  0F2C                     	;# 
  1618  0F2D                     	;# 
  1619  0F2E                     	;# 
  1620  0F2F                     	;# 
  1621  0F30                     	;# 
  1622  0F31                     	;# 
  1623  0F32                     	;# 
  1624  0F38                     	;# 
  1625  0F39                     	;# 
  1626  0F3A                     	;# 
  1627  0F3B                     	;# 
  1628  0F3C                     	;# 
  1629  0F3D                     	;# 
  1630  0F3E                     	;# 
  1631  0F3F                     	;# 
  1632  0F40                     	;# 
  1633  0F41                     	;# 
  1634  0F43                     	;# 
  1635  0F44                     	;# 
  1636  0F45                     	;# 
  1637  0F46                     	;# 
  1638  0F47                     	;# 
  1639  0F48                     	;# 
  1640  0F49                     	;# 
  1641  0F4A                     	;# 
  1642  0F4B                     	;# 
  1643  0F4C                     	;# 
  1644  0F4E                     	;# 
  1645  0F4F                     	;# 
  1646  0F50                     	;# 
  1647  0F51                     	;# 
  1648  0F52                     	;# 
  1649  0F53                     	;# 
  1650  0F54                     	;# 
  1651  0F55                     	;# 
  1652  0F56                     	;# 
  1653  0F57                     	;# 
  1654  0F59                     	;# 
  1655  0F5A                     	;# 
  1656  0F5B                     	;# 
  1657  0F5C                     	;# 
  1658  0F5D                     	;# 
  1659  0F61                     	;# 
  1660  0F62                     	;# 
  1661  0F64                     	;# 
  1662  0F65                     	;# 
  1663  0F66                     	;# 
  1664  0F67                     	;# 
  1665  0F68                     	;# 
  1666  0F69                     	;# 
  1667  0F6A                     	;# 
  1668  0F6B                     	;# 
  1669  0F6C                     	;# 
  1670  0F6D                     	;# 
  1671  0FE4                     	;# 
  1672  0FE5                     	;# 
  1673  0FE6                     	;# 
  1674  0FE7                     	;# 
  1675  0FE8                     	;# 
  1676  0FE9                     	;# 
  1677  0FEA                     	;# 
  1678  0FEB                     	;# 
  1679  0FED                     	;# 
  1680  0FEE                     	;# 
  1681  0FEF                     	;# 
  1682  0000                     	;# 
  1683  0001                     	;# 
  1684  0002                     	;# 
  1685  0003                     	;# 
  1686  0004                     	;# 
  1687  0005                     	;# 
  1688  0006                     	;# 
  1689  0007                     	;# 
  1690  0008                     	;# 
  1691  0009                     	;# 
  1692  000A                     	;# 
  1693  000B                     	;# 
  1694  000C                     	;# 
  1695  000D                     	;# 
  1696  000E                     	;# 
  1697  000F                     	;# 
  1698  0010                     	;# 
  1699  0011                     	;# 
  1700  0012                     	;# 
  1701  0013                     	;# 
  1702  0014                     	;# 
  1703  0015                     	;# 
  1704  0016                     	;# 
  1705  0017                     	;# 
  1706  0018                     	;# 
  1707  0019                     	;# 
  1708  001A                     	;# 
  1709  001C                     	;# 
  1710  001C                     	;# 
  1711  001D                     	;# 
  1712  001D                     	;# 
  1713  001E                     	;# 
  1714  001F                     	;# 
  1715  008C                     	;# 
  1716  008C                     	;# 
  1717  008D                     	;# 
  1718  008E                     	;# 
  1719  008E                     	;# 
  1720  008F                     	;# 
  1721  0090                     	;# 
  1722  0090                     	;# 
  1723  0091                     	;# 
  1724  0093                     	;# 
  1725  0094                     	;# 
  1726  0095                     	;# 
  1727  0096                     	;# 
  1728  0097                     	;# 
  1729  0098                     	;# 
  1730  0099                     	;# 
  1731  009A                     	;# 
  1732  009B                     	;# 
  1733  009C                     	;# 
  1734  009D                     	;# 
  1735  009E                     	;# 
  1736  010C                     	;# 
  1737  010D                     	;# 
  1738  010E                     	;# 
  1739  010E                     	;# 
  1740  010F                     	;# 
  1741  0110                     	;# 
  1742  0110                     	;# 
  1743  0111                     	;# 
  1744  0112                     	;# 
  1745  0112                     	;# 
  1746  0113                     	;# 
  1747  0114                     	;# 
  1748  0114                     	;# 
  1749  0115                     	;# 
  1750  0116                     	;# 
  1751  0116                     	;# 
  1752  0117                     	;# 
  1753  0119                     	;# 
  1754  0119                     	;# 
  1755  0119                     	;# 
  1756  011A                     	;# 
  1757  011A                     	;# 
  1758  011A                     	;# 
  1759  011B                     	;# 
  1760  011B                     	;# 
  1761  011B                     	;# 
  1762  011B                     	;# 
  1763  011B                     	;# 
  1764  011C                     	;# 
  1765  011C                     	;# 
  1766  011C                     	;# 
  1767  011D                     	;# 
  1768  011D                     	;# 
  1769  011D                     	;# 
  1770  011E                     	;# 
  1771  011E                     	;# 
  1772  011E                     	;# 
  1773  011F                     	;# 
  1774  011F                     	;# 
  1775  011F                     	;# 
  1776  011F                     	;# 
  1777  011F                     	;# 
  1778  018C                     	;# 
  1779  018D                     	;# 
  1780  018E                     	;# 
  1781  018F                     	;# 
  1782  0190                     	;# 
  1783  0191                     	;# 
  1784  0192                     	;# 
  1785  0196                     	;# 
  1786  0197                     	;# 
  1787  0198                     	;# 
  1788  0199                     	;# 
  1789  019A                     	;# 
  1790  019B                     	;# 
  1791  019C                     	;# 
  1792  020C                     	;# 
  1793  020C                     	;# 
  1794  020D                     	;# 
  1795  020E                     	;# 
  1796  020F                     	;# 
  1797  020F                     	;# 
  1798  0210                     	;# 
  1799  0210                     	;# 
  1800  0211                     	;# 
  1801  0211                     	;# 
  1802  0212                     	;# 
  1803  0212                     	;# 
  1804  0213                     	;# 
  1805  0214                     	;# 
  1806  0215                     	;# 
  1807  0215                     	;# 
  1808  0216                     	;# 
  1809  0216                     	;# 
  1810  0217                     	;# 
  1811  0217                     	;# 
  1812  0218                     	;# 
  1813  0218                     	;# 
  1814  0219                     	;# 
  1815  021A                     	;# 
  1816  021B                     	;# 
  1817  021B                     	;# 
  1818  021C                     	;# 
  1819  021C                     	;# 
  1820  021D                     	;# 
  1821  021D                     	;# 
  1822  021E                     	;# 
  1823  021F                     	;# 
  1824  028C                     	;# 
  1825  028C                     	;# 
  1826  028D                     	;# 
  1827  028D                     	;# 
  1828  028E                     	;# 
  1829  028F                     	;# 
  1830  0290                     	;# 
  1831  0290                     	;# 
  1832  0291                     	;# 
  1833  0292                     	;# 
  1834  0292                     	;# 
  1835  0293                     	;# 
  1836  0293                     	;# 
  1837  0294                     	;# 
  1838  0295                     	;# 
  1839  0296                     	;# 
  1840  0296                     	;# 
  1841  0297                     	;# 
  1842  0298                     	;# 
  1843  0298                     	;# 
  1844  0299                     	;# 
  1845  0299                     	;# 
  1846  029A                     	;# 
  1847  029B                     	;# 
  1848  029C                     	;# 
  1849  029C                     	;# 
  1850  029D                     	;# 
  1851  030C                     	;# 
  1852  030C                     	;# 
  1853  030D                     	;# 
  1854  030E                     	;# 
  1855  030F                     	;# 
  1856  0310                     	;# 
  1857  0310                     	;# 
  1858  0311                     	;# 
  1859  0312                     	;# 
  1860  0313                     	;# 
  1861  0314                     	;# 
  1862  0314                     	;# 
  1863  0315                     	;# 
  1864  0316                     	;# 
  1865  0317                     	;# 
  1866  0318                     	;# 
  1867  0318                     	;# 
  1868  0319                     	;# 
  1869  031A                     	;# 
  1870  031B                     	;# 
  1871  031C                     	;# 
  1872  031C                     	;# 
  1873  031D                     	;# 
  1874  031E                     	;# 
  1875  031F                     	;# 
  1876  038C                     	;# 
  1877  038D                     	;# 
  1878  038E                     	;# 
  1879  0390                     	;# 
  1880  0391                     	;# 
  1881  0392                     	;# 
  1882  040C                     	;# 
  1883  040D                     	;# 
  1884  040E                     	;# 
  1885  040F                     	;# 
  1886  0410                     	;# 
  1887  0411                     	;# 
  1888  0416                     	;# 
  1889  0416                     	;# 
  1890  0417                     	;# 
  1891  0418                     	;# 
  1892  0418                     	;# 
  1893  0419                     	;# 
  1894  041A                     	;# 
  1895  041A                     	;# 
  1896  041B                     	;# 
  1897  041C                     	;# 
  1898  041C                     	;# 
  1899  041D                     	;# 
  1900  041E                     	;# 
  1901  041F                     	;# 
  1902  048C                     	;# 
  1903  048C                     	;# 
  1904  048D                     	;# 
  1905  048E                     	;# 
  1906  048F                     	;# 
  1907  048F                     	;# 
  1908  0490                     	;# 
  1909  0491                     	;# 
  1910  0492                     	;# 
  1911  0492                     	;# 
  1912  0493                     	;# 
  1913  0494                     	;# 
  1914  0495                     	;# 
  1915  0495                     	;# 
  1916  0496                     	;# 
  1917  0497                     	;# 
  1918  0498                     	;# 
  1919  0499                     	;# 
  1920  049A                     	;# 
  1921  049B                     	;# 
  1922  049C                     	;# 
  1923  049D                     	;# 
  1924  050C                     	;# 
  1925  050C                     	;# 
  1926  050D                     	;# 
  1927  050E                     	;# 
  1928  050F                     	;# 
  1929  050F                     	;# 
  1930  0510                     	;# 
  1931  0511                     	;# 
  1932  0512                     	;# 
  1933  0512                     	;# 
  1934  0513                     	;# 
  1935  0514                     	;# 
  1936  0515                     	;# 
  1937  0515                     	;# 
  1938  0516                     	;# 
  1939  0517                     	;# 
  1940  0518                     	;# 
  1941  0519                     	;# 
  1942  051A                     	;# 
  1943  051B                     	;# 
  1944  051C                     	;# 
  1945  051D                     	;# 
  1946  058C                     	;# 
  1947  058C                     	;# 
  1948  058D                     	;# 
  1949  058E                     	;# 
  1950  058F                     	;# 
  1951  058F                     	;# 
  1952  0590                     	;# 
  1953  0591                     	;# 
  1954  0592                     	;# 
  1955  0593                     	;# 
  1956  060C                     	;# 
  1957  060D                     	;# 
  1958  060E                     	;# 
  1959  060F                     	;# 
  1960  0610                     	;# 
  1961  0611                     	;# 
  1962  0612                     	;# 
  1963  0613                     	;# 
  1964  0614                     	;# 
  1965  0616                     	;# 
  1966  0617                     	;# 
  1967  0618                     	;# 
  1968  0619                     	;# 
  1969  061A                     	;# 
  1970  061B                     	;# 
  1971  061C                     	;# 
  1972  061D                     	;# 
  1973  061E                     	;# 
  1974  068C                     	;# 
  1975  068D                     	;# 
  1976  068E                     	;# 
  1977  068F                     	;# 
  1978  0690                     	;# 
  1979  0691                     	;# 
  1980  0692                     	;# 
  1981  0693                     	;# 
  1982  0694                     	;# 
  1983  070C                     	;# 
  1984  070D                     	;# 
  1985  070E                     	;# 
  1986  070F                     	;# 
  1987  0710                     	;# 
  1988  0711                     	;# 
  1989  0712                     	;# 
  1990  0713                     	;# 
  1991  0714                     	;# 
  1992  0716                     	;# 
  1993  0717                     	;# 
  1994  0718                     	;# 
  1995  0719                     	;# 
  1996  071A                     	;# 
  1997  071B                     	;# 
  1998  071C                     	;# 
  1999  071D                     	;# 
  2000  071E                     	;# 
  2001  0796                     	;# 
  2002  0797                     	;# 
  2003  0798                     	;# 
  2004  0799                     	;# 
  2005  079A                     	;# 
  2006  079B                     	;# 
  2007  080C                     	;# 
  2008  080D                     	;# 
  2009  080E                     	;# 
  2010  080F                     	;# 
  2011  0810                     	;# 
  2012  0811                     	;# 
  2013  0812                     	;# 
  2014  0813                     	;# 
  2015  0814                     	;# 
  2016  081A                     	;# 
  2017  081B                     	;# 
  2018  081C                     	;# 
  2019  081D                     	;# 
  2020  081E                     	;# 
  2021  081F                     	;# 
  2022  088C                     	;# 
  2023  088D                     	;# 
  2024  088E                     	;# 
  2025  088F                     	;# 
  2026  0890                     	;# 
  2027  0891                     	;# 
  2028  0892                     	;# 
  2029  0893                     	;# 
  2030  0895                     	;# 
  2031  0896                     	;# 
  2032  0897                     	;# 
  2033  0898                     	;# 
  2034  0899                     	;# 
  2035  089A                     	;# 
  2036  089B                     	;# 
  2037  090C                     	;# 
  2038  090E                     	;# 
  2039  090F                     	;# 
  2040  091F                     	;# 
  2041  091F                     	;# 
  2042  098F                     	;# 
  2043  098F                     	;# 
  2044  0990                     	;# 
  2045  0991                     	;# 
  2046  0992                     	;# 
  2047  0993                     	;# 
  2048  0994                     	;# 
  2049  0995                     	;# 
  2050  0996                     	;# 
  2051  0997                     	;# 
  2052  0E0F                     	;# 
  2053  0E10                     	;# 
  2054  0E11                     	;# 
  2055  0E12                     	;# 
  2056  0E13                     	;# 
  2057  0E14                     	;# 
  2058  0E15                     	;# 
  2059  0E16                     	;# 
  2060  0E17                     	;# 
  2061  0E18                     	;# 
  2062  0E19                     	;# 
  2063  0E1A                     	;# 
  2064  0E1B                     	;# 
  2065  0E1C                     	;# 
  2066  0E1D                     	;# 
  2067  0E1E                     	;# 
  2068  0E1F                     	;# 
  2069  0E20                     	;# 
  2070  0E21                     	;# 
  2071  0E22                     	;# 
  2072  0E23                     	;# 
  2073  0E24                     	;# 
  2074  0E25                     	;# 
  2075  0E26                     	;# 
  2076  0E27                     	;# 
  2077  0E28                     	;# 
  2078  0E29                     	;# 
  2079  0E2A                     	;# 
  2080  0E2B                     	;# 
  2081  0E2C                     	;# 
  2082  0E2D                     	;# 
  2083  0E2E                     	;# 
  2084  0E2F                     	;# 
  2085  0E30                     	;# 
  2086  0E31                     	;# 
  2087  0E32                     	;# 
  2088  0E33                     	;# 
  2089  0E34                     	;# 
  2090  0E35                     	;# 
  2091  0E36                     	;# 
  2092  0E37                     	;# 
  2093  0E8F                     	;# 
  2094  0E90                     	;# 
  2095  0E91                     	;# 
  2096  0E92                     	;# 
  2097  0E93                     	;# 
  2098  0E94                     	;# 
  2099  0E95                     	;# 
  2100  0E96                     	;# 
  2101  0E97                     	;# 
  2102  0E9C                     	;# 
  2103  0E9D                     	;# 
  2104  0E9E                     	;# 
  2105  0EA1                     	;# 
  2106  0EA2                     	;# 
  2107  0EA3                     	;# 
  2108  0EA4                     	;# 
  2109  0EA5                     	;# 
  2110  0EA9                     	;# 
  2111  0EAA                     	;# 
  2112  0EAB                     	;# 
  2113  0EAC                     	;# 
  2114  0EB1                     	;# 
  2115  0EB2                     	;# 
  2116  0EB3                     	;# 
  2117  0EB8                     	;# 
  2118  0EB9                     	;# 
  2119  0EBA                     	;# 
  2120  0EBB                     	;# 
  2121  0EBC                     	;# 
  2122  0EBD                     	;# 
  2123  0EBE                     	;# 
  2124  0EC3                     	;# 
  2125  0EC5                     	;# 
  2126  0EC6                     	;# 
  2127  0EC7                     	;# 
  2128  0EC8                     	;# 
  2129  0EC9                     	;# 
  2130  0ECA                     	;# 
  2131  0ECB                     	;# 
  2132  0ECC                     	;# 
  2133  0F10                     	;# 
  2134  0F11                     	;# 
  2135  0F12                     	;# 
  2136  0F13                     	;# 
  2137  0F14                     	;# 
  2138  0F15                     	;# 
  2139  0F16                     	;# 
  2140  0F17                     	;# 
  2141  0F18                     	;# 
  2142  0F19                     	;# 
  2143  0F1A                     	;# 
  2144  0F1B                     	;# 
  2145  0F1C                     	;# 
  2146  0F1D                     	;# 
  2147  0F1E                     	;# 
  2148  0F1F                     	;# 
  2149  0F20                     	;# 
  2150  0F21                     	;# 
  2151  0F22                     	;# 
  2152  0F23                     	;# 
  2153  0F24                     	;# 
  2154  0F25                     	;# 
  2155  0F26                     	;# 
  2156  0F27                     	;# 
  2157  0F28                     	;# 
  2158  0F29                     	;# 
  2159  0F2A                     	;# 
  2160  0F2B                     	;# 
  2161  0F2C                     	;# 
  2162  0F2D                     	;# 
  2163  0F2E                     	;# 
  2164  0F2F                     	;# 
  2165  0F30                     	;# 
  2166  0F31                     	;# 
  2167  0F32                     	;# 
  2168  0F38                     	;# 
  2169  0F39                     	;# 
  2170  0F3A                     	;# 
  2171  0F3B                     	;# 
  2172  0F3C                     	;# 
  2173  0F3D                     	;# 
  2174  0F3E                     	;# 
  2175  0F3F                     	;# 
  2176  0F40                     	;# 
  2177  0F41                     	;# 
  2178  0F43                     	;# 
  2179  0F44                     	;# 
  2180  0F45                     	;# 
  2181  0F46                     	;# 
  2182  0F47                     	;# 
  2183  0F48                     	;# 
  2184  0F49                     	;# 
  2185  0F4A                     	;# 
  2186  0F4B                     	;# 
  2187  0F4C                     	;# 
  2188  0F4E                     	;# 
  2189  0F4F                     	;# 
  2190  0F50                     	;# 
  2191  0F51                     	;# 
  2192  0F52                     	;# 
  2193  0F53                     	;# 
  2194  0F54                     	;# 
  2195  0F55                     	;# 
  2196  0F56                     	;# 
  2197  0F57                     	;# 
  2198  0F59                     	;# 
  2199  0F5A                     	;# 
  2200  0F5B                     	;# 
  2201  0F5C                     	;# 
  2202  0F5D                     	;# 
  2203  0F61                     	;# 
  2204  0F62                     	;# 
  2205  0F64                     	;# 
  2206  0F65                     	;# 
  2207  0F66                     	;# 
  2208  0F67                     	;# 
  2209  0F68                     	;# 
  2210  0F69                     	;# 
  2211  0F6A                     	;# 
  2212  0F6B                     	;# 
  2213  0F6C                     	;# 
  2214  0F6D                     	;# 
  2215  0FE4                     	;# 
  2216  0FE5                     	;# 
  2217  0FE6                     	;# 
  2218  0FE7                     	;# 
  2219  0FE8                     	;# 
  2220  0FE9                     	;# 
  2221  0FEA                     	;# 
  2222  0FEB                     	;# 
  2223  0FED                     	;# 
  2224  0FEE                     	;# 
  2225  0FEF                     	;# 
  2226  0000                     	;# 
  2227  0001                     	;# 
  2228  0002                     	;# 
  2229  0003                     	;# 
  2230  0004                     	;# 
  2231  0005                     	;# 
  2232  0006                     	;# 
  2233  0007                     	;# 
  2234  0008                     	;# 
  2235  0009                     	;# 
  2236  000A                     	;# 
  2237  000B                     	;# 
  2238  000C                     	;# 
  2239  000D                     	;# 
  2240  000E                     	;# 
  2241  000F                     	;# 
  2242  0010                     	;# 
  2243  0011                     	;# 
  2244  0012                     	;# 
  2245  0013                     	;# 
  2246  0014                     	;# 
  2247  0015                     	;# 
  2248  0016                     	;# 
  2249  0017                     	;# 
  2250  0018                     	;# 
  2251  0019                     	;# 
  2252  001A                     	;# 
  2253  001C                     	;# 
  2254  001C                     	;# 
  2255  001D                     	;# 
  2256  001D                     	;# 
  2257  001E                     	;# 
  2258  001F                     	;# 
  2259  008C                     	;# 
  2260  008C                     	;# 
  2261  008D                     	;# 
  2262  008E                     	;# 
  2263  008E                     	;# 
  2264  008F                     	;# 
  2265  0090                     	;# 
  2266  0090                     	;# 
  2267  0091                     	;# 
  2268  0093                     	;# 
  2269  0094                     	;# 
  2270  0095                     	;# 
  2271  0096                     	;# 
  2272  0097                     	;# 
  2273  0098                     	;# 
  2274  0099                     	;# 
  2275  009A                     	;# 
  2276  009B                     	;# 
  2277  009C                     	;# 
  2278  009D                     	;# 
  2279  009E                     	;# 
  2280  010C                     	;# 
  2281  010D                     	;# 
  2282  010E                     	;# 
  2283  010E                     	;# 
  2284  010F                     	;# 
  2285  0110                     	;# 
  2286  0110                     	;# 
  2287  0111                     	;# 
  2288  0112                     	;# 
  2289  0112                     	;# 
  2290  0113                     	;# 
  2291  0114                     	;# 
  2292  0114                     	;# 
  2293  0115                     	;# 
  2294  0116                     	;# 
  2295  0116                     	;# 
  2296  0117                     	;# 
  2297  0119                     	;# 
  2298  0119                     	;# 
  2299  0119                     	;# 
  2300  011A                     	;# 
  2301  011A                     	;# 
  2302  011A                     	;# 
  2303  011B                     	;# 
  2304  011B                     	;# 
  2305  011B                     	;# 
  2306  011B                     	;# 
  2307  011B                     	;# 
  2308  011C                     	;# 
  2309  011C                     	;# 
  2310  011C                     	;# 
  2311  011D                     	;# 
  2312  011D                     	;# 
  2313  011D                     	;# 
  2314  011E                     	;# 
  2315  011E                     	;# 
  2316  011E                     	;# 
  2317  011F                     	;# 
  2318  011F                     	;# 
  2319  011F                     	;# 
  2320  011F                     	;# 
  2321  011F                     	;# 
  2322  018C                     	;# 
  2323  018D                     	;# 
  2324  018E                     	;# 
  2325  018F                     	;# 
  2326  0190                     	;# 
  2327  0191                     	;# 
  2328  0192                     	;# 
  2329  0196                     	;# 
  2330  0197                     	;# 
  2331  0198                     	;# 
  2332  0199                     	;# 
  2333  019A                     	;# 
  2334  019B                     	;# 
  2335  019C                     	;# 
  2336  020C                     	;# 
  2337  020C                     	;# 
  2338  020D                     	;# 
  2339  020E                     	;# 
  2340  020F                     	;# 
  2341  020F                     	;# 
  2342  0210                     	;# 
  2343  0210                     	;# 
  2344  0211                     	;# 
  2345  0211                     	;# 
  2346  0212                     	;# 
  2347  0212                     	;# 
  2348  0213                     	;# 
  2349  0214                     	;# 
  2350  0215                     	;# 
  2351  0215                     	;# 
  2352  0216                     	;# 
  2353  0216                     	;# 
  2354  0217                     	;# 
  2355  0217                     	;# 
  2356  0218                     	;# 
  2357  0218                     	;# 
  2358  0219                     	;# 
  2359  021A                     	;# 
  2360  021B                     	;# 
  2361  021B                     	;# 
  2362  021C                     	;# 
  2363  021C                     	;# 
  2364  021D                     	;# 
  2365  021D                     	;# 
  2366  021E                     	;# 
  2367  021F                     	;# 
  2368  028C                     	;# 
  2369  028C                     	;# 
  2370  028D                     	;# 
  2371  028D                     	;# 
  2372  028E                     	;# 
  2373  028F                     	;# 
  2374  0290                     	;# 
  2375  0290                     	;# 
  2376  0291                     	;# 
  2377  0292                     	;# 
  2378  0292                     	;# 
  2379  0293                     	;# 
  2380  0293                     	;# 
  2381  0294                     	;# 
  2382  0295                     	;# 
  2383  0296                     	;# 
  2384  0296                     	;# 
  2385  0297                     	;# 
  2386  0298                     	;# 
  2387  0298                     	;# 
  2388  0299                     	;# 
  2389  0299                     	;# 
  2390  029A                     	;# 
  2391  029B                     	;# 
  2392  029C                     	;# 
  2393  029C                     	;# 
  2394  029D                     	;# 
  2395  030C                     	;# 
  2396  030C                     	;# 
  2397  030D                     	;# 
  2398  030E                     	;# 
  2399  030F                     	;# 
  2400  0310                     	;# 
  2401  0310                     	;# 
  2402  0311                     	;# 
  2403  0312                     	;# 
  2404  0313                     	;# 
  2405  0314                     	;# 
  2406  0314                     	;# 
  2407  0315                     	;# 
  2408  0316                     	;# 
  2409  0317                     	;# 
  2410  0318                     	;# 
  2411  0318                     	;# 
  2412  0319                     	;# 
  2413  031A                     	;# 
  2414  031B                     	;# 
  2415  031C                     	;# 
  2416  031C                     	;# 
  2417  031D                     	;# 
  2418  031E                     	;# 
  2419  031F                     	;# 
  2420  038C                     	;# 
  2421  038D                     	;# 
  2422  038E                     	;# 
  2423  0390                     	;# 
  2424  0391                     	;# 
  2425  0392                     	;# 
  2426  040C                     	;# 
  2427  040D                     	;# 
  2428  040E                     	;# 
  2429  040F                     	;# 
  2430  0410                     	;# 
  2431  0411                     	;# 
  2432  0416                     	;# 
  2433  0416                     	;# 
  2434  0417                     	;# 
  2435  0418                     	;# 
  2436  0418                     	;# 
  2437  0419                     	;# 
  2438  041A                     	;# 
  2439  041A                     	;# 
  2440  041B                     	;# 
  2441  041C                     	;# 
  2442  041C                     	;# 
  2443  041D                     	;# 
  2444  041E                     	;# 
  2445  041F                     	;# 
  2446  048C                     	;# 
  2447  048C                     	;# 
  2448  048D                     	;# 
  2449  048E                     	;# 
  2450  048F                     	;# 
  2451  048F                     	;# 
  2452  0490                     	;# 
  2453  0491                     	;# 
  2454  0492                     	;# 
  2455  0492                     	;# 
  2456  0493                     	;# 
  2457  0494                     	;# 
  2458  0495                     	;# 
  2459  0495                     	;# 
  2460  0496                     	;# 
  2461  0497                     	;# 
  2462  0498                     	;# 
  2463  0499                     	;# 
  2464  049A                     	;# 
  2465  049B                     	;# 
  2466  049C                     	;# 
  2467  049D                     	;# 
  2468  050C                     	;# 
  2469  050C                     	;# 
  2470  050D                     	;# 
  2471  050E                     	;# 
  2472  050F                     	;# 
  2473  050F                     	;# 
  2474  0510                     	;# 
  2475  0511                     	;# 
  2476  0512                     	;# 
  2477  0512                     	;# 
  2478  0513                     	;# 
  2479  0514                     	;# 
  2480  0515                     	;# 
  2481  0515                     	;# 
  2482  0516                     	;# 
  2483  0517                     	;# 
  2484  0518                     	;# 
  2485  0519                     	;# 
  2486  051A                     	;# 
  2487  051B                     	;# 
  2488  051C                     	;# 
  2489  051D                     	;# 
  2490  058C                     	;# 
  2491  058C                     	;# 
  2492  058D                     	;# 
  2493  058E                     	;# 
  2494  058F                     	;# 
  2495  058F                     	;# 
  2496  0590                     	;# 
  2497  0591                     	;# 
  2498  0592                     	;# 
  2499  0593                     	;# 
  2500  060C                     	;# 
  2501  060D                     	;# 
  2502  060E                     	;# 
  2503  060F                     	;# 
  2504  0610                     	;# 
  2505  0611                     	;# 
  2506  0612                     	;# 
  2507  0613                     	;# 
  2508  0614                     	;# 
  2509  0616                     	;# 
  2510  0617                     	;# 
  2511  0618                     	;# 
  2512  0619                     	;# 
  2513  061A                     	;# 
  2514  061B                     	;# 
  2515  061C                     	;# 
  2516  061D                     	;# 
  2517  061E                     	;# 
  2518  068C                     	;# 
  2519  068D                     	;# 
  2520  068E                     	;# 
  2521  068F                     	;# 
  2522  0690                     	;# 
  2523  0691                     	;# 
  2524  0692                     	;# 
  2525  0693                     	;# 
  2526  0694                     	;# 
  2527  070C                     	;# 
  2528  070D                     	;# 
  2529  070E                     	;# 
  2530  070F                     	;# 
  2531  0710                     	;# 
  2532  0711                     	;# 
  2533  0712                     	;# 
  2534  0713                     	;# 
  2535  0714                     	;# 
  2536  0716                     	;# 
  2537  0717                     	;# 
  2538  0718                     	;# 
  2539  0719                     	;# 
  2540  071A                     	;# 
  2541  071B                     	;# 
  2542  071C                     	;# 
  2543  071D                     	;# 
  2544  071E                     	;# 
  2545  0796                     	;# 
  2546  0797                     	;# 
  2547  0798                     	;# 
  2548  0799                     	;# 
  2549  079A                     	;# 
  2550  079B                     	;# 
  2551  080C                     	;# 
  2552  080D                     	;# 
  2553  080E                     	;# 
  2554  080F                     	;# 
  2555  0810                     	;# 
  2556  0811                     	;# 
  2557  0812                     	;# 
  2558  0813                     	;# 
  2559  0814                     	;# 
  2560  081A                     	;# 
  2561  081B                     	;# 
  2562  081C                     	;# 
  2563  081D                     	;# 
  2564  081E                     	;# 
  2565  081F                     	;# 
  2566  088C                     	;# 
  2567  088D                     	;# 
  2568  088E                     	;# 
  2569  088F                     	;# 
  2570  0890                     	;# 
  2571  0891                     	;# 
  2572  0892                     	;# 
  2573  0893                     	;# 
  2574  0895                     	;# 
  2575  0896                     	;# 
  2576  0897                     	;# 
  2577  0898                     	;# 
  2578  0899                     	;# 
  2579  089A                     	;# 
  2580  089B                     	;# 
  2581  090C                     	;# 
  2582  090E                     	;# 
  2583  090F                     	;# 
  2584  091F                     	;# 
  2585  091F                     	;# 
  2586  098F                     	;# 
  2587  098F                     	;# 
  2588  0990                     	;# 
  2589  0991                     	;# 
  2590  0992                     	;# 
  2591  0993                     	;# 
  2592  0994                     	;# 
  2593  0995                     	;# 
  2594  0996                     	;# 
  2595  0997                     	;# 
  2596  0E0F                     	;# 
  2597  0E10                     	;# 
  2598  0E11                     	;# 
  2599  0E12                     	;# 
  2600  0E13                     	;# 
  2601  0E14                     	;# 
  2602  0E15                     	;# 
  2603  0E16                     	;# 
  2604  0E17                     	;# 
  2605  0E18                     	;# 
  2606  0E19                     	;# 
  2607  0E1A                     	;# 
  2608  0E1B                     	;# 
  2609  0E1C                     	;# 
  2610  0E1D                     	;# 
  2611  0E1E                     	;# 
  2612  0E1F                     	;# 
  2613  0E20                     	;# 
  2614  0E21                     	;# 
  2615  0E22                     	;# 
  2616  0E23                     	;# 
  2617  0E24                     	;# 
  2618  0E25                     	;# 
  2619  0E26                     	;# 
  2620  0E27                     	;# 
  2621  0E28                     	;# 
  2622  0E29                     	;# 
  2623  0E2A                     	;# 
  2624  0E2B                     	;# 
  2625  0E2C                     	;# 
  2626  0E2D                     	;# 
  2627  0E2E                     	;# 
  2628  0E2F                     	;# 
  2629  0E30                     	;# 
  2630  0E31                     	;# 
  2631  0E32                     	;# 
  2632  0E33                     	;# 
  2633  0E34                     	;# 
  2634  0E35                     	;# 
  2635  0E36                     	;# 
  2636  0E37                     	;# 
  2637  0E8F                     	;# 
  2638  0E90                     	;# 
  2639  0E91                     	;# 
  2640  0E92                     	;# 
  2641  0E93                     	;# 
  2642  0E94                     	;# 
  2643  0E95                     	;# 
  2644  0E96                     	;# 
  2645  0E97                     	;# 
  2646  0E9C                     	;# 
  2647  0E9D                     	;# 
  2648  0E9E                     	;# 
  2649  0EA1                     	;# 
  2650  0EA2                     	;# 
  2651  0EA3                     	;# 
  2652  0EA4                     	;# 
  2653  0EA5                     	;# 
  2654  0EA9                     	;# 
  2655  0EAA                     	;# 
  2656  0EAB                     	;# 
  2657  0EAC                     	;# 
  2658  0EB1                     	;# 
  2659  0EB2                     	;# 
  2660  0EB3                     	;# 
  2661  0EB8                     	;# 
  2662  0EB9                     	;# 
  2663  0EBA                     	;# 
  2664  0EBB                     	;# 
  2665  0EBC                     	;# 
  2666  0EBD                     	;# 
  2667  0EBE                     	;# 
  2668  0EC3                     	;# 
  2669  0EC5                     	;# 
  2670  0EC6                     	;# 
  2671  0EC7                     	;# 
  2672  0EC8                     	;# 
  2673  0EC9                     	;# 
  2674  0ECA                     	;# 
  2675  0ECB                     	;# 
  2676  0ECC                     	;# 
  2677  0F10                     	;# 
  2678  0F11                     	;# 
  2679  0F12                     	;# 
  2680  0F13                     	;# 
  2681  0F14                     	;# 
  2682  0F15                     	;# 
  2683  0F16                     	;# 
  2684  0F17                     	;# 
  2685  0F18                     	;# 
  2686  0F19                     	;# 
  2687  0F1A                     	;# 
  2688  0F1B                     	;# 
  2689  0F1C                     	;# 
  2690  0F1D                     	;# 
  2691  0F1E                     	;# 
  2692  0F1F                     	;# 
  2693  0F20                     	;# 
  2694  0F21                     	;# 
  2695  0F22                     	;# 
  2696  0F23                     	;# 
  2697  0F24                     	;# 
  2698  0F25                     	;# 
  2699  0F26                     	;# 
  2700  0F27                     	;# 
  2701  0F28                     	;# 
  2702  0F29                     	;# 
  2703  0F2A                     	;# 
  2704  0F2B                     	;# 
  2705  0F2C                     	;# 
  2706  0F2D                     	;# 
  2707  0F2E                     	;# 
  2708  0F2F                     	;# 
  2709  0F30                     	;# 
  2710  0F31                     	;# 
  2711  0F32                     	;# 
  2712  0F38                     	;# 
  2713  0F39                     	;# 
  2714  0F3A                     	;# 
  2715  0F3B                     	;# 
  2716  0F3C                     	;# 
  2717  0F3D                     	;# 
  2718  0F3E                     	;# 
  2719  0F3F                     	;# 
  2720  0F40                     	;# 
  2721  0F41                     	;# 
  2722  0F43                     	;# 
  2723  0F44                     	;# 
  2724  0F45                     	;# 
  2725  0F46                     	;# 
  2726  0F47                     	;# 
  2727  0F48                     	;# 
  2728  0F49                     	;# 
  2729  0F4A                     	;# 
  2730  0F4B                     	;# 
  2731  0F4C                     	;# 
  2732  0F4E                     	;# 
  2733  0F4F                     	;# 
  2734  0F50                     	;# 
  2735  0F51                     	;# 
  2736  0F52                     	;# 
  2737  0F53                     	;# 
  2738  0F54                     	;# 
  2739  0F55                     	;# 
  2740  0F56                     	;# 
  2741  0F57                     	;# 
  2742  0F59                     	;# 
  2743  0F5A                     	;# 
  2744  0F5B                     	;# 
  2745  0F5C                     	;# 
  2746  0F5D                     	;# 
  2747  0F61                     	;# 
  2748  0F62                     	;# 
  2749  0F64                     	;# 
  2750  0F65                     	;# 
  2751  0F66                     	;# 
  2752  0F67                     	;# 
  2753  0F68                     	;# 
  2754  0F69                     	;# 
  2755  0F6A                     	;# 
  2756  0F6B                     	;# 
  2757  0F6C                     	;# 
  2758  0F6D                     	;# 
  2759  0FE4                     	;# 
  2760  0FE5                     	;# 
  2761  0FE6                     	;# 
  2762  0FE7                     	;# 
  2763  0FE8                     	;# 
  2764  0FE9                     	;# 
  2765  0FEA                     	;# 
  2766  0FEB                     	;# 
  2767  0FED                     	;# 
  2768  0FEE                     	;# 
  2769  0FEF                     	;# 
  2770  0014                     _TRISD	set	20
  2771  0013                     _TRISC	set	19
  2772  0012                     _TRISB	set	18
  2773  0011                     _TRISA	set	17
  2774  0015                     _TRISE	set	21
  2775  0018                     _LATC	set	24
  2776  0017                     _LATB	set	23
  2777  0016                     _LATA	set	22
  2778  0019                     _LATD	set	25
  2779  001A                     _LATE	set	26
  2780  021F                     _CCPTMRS1bits	set	543
  2781  028D                     _PR2	set	653
  2782  028C                     _TMR2	set	652
  2783  028E                     _T2CONbits	set	654
  2784  0291                     _T2RSTbits	set	657
  2785  028F                     _T2HLTbits	set	655
  2786  028E                     _T2CON	set	654
  2787  028C                     _T2TMR	set	652
  2788  028D                     _T2PR	set	653
  2789  0291                     _T2RST	set	657
  2790  028F                     _T2HLT	set	655
  2791  0290                     _T2CLKCON	set	656
  2792  038C                     _PWM6DCL	set	908
  2793  038D                     _PWM6DCH	set	909
  2794  038E                     _PWM6CON	set	910
  2795  0710                     _PIR4bits	set	1808
  2796  079B                     _PMD5	set	1947
  2797  079A                     _PMD4	set	1946
  2798  0799                     _PMD3	set	1945
  2799  0798                     _PMD2	set	1944
  2800  0797                     _PMD1	set	1943
  2801  0796                     _PMD0	set	1942
  2802  0892                     _OSCTUNE	set	2194
  2803  0893                     _OSCFRQ	set	2195
  2804  0891                     _OSCEN	set	2193
  2805  088F                     _OSCCON3	set	2191
  2806  088D                     _OSCCON1	set	2189
  2807  0E9C                     _T2AINPPSbits	set	3740
  2808  0F14                     _RA4PPS	set	3860
  2809  0F5B                     _ODCOND	set	3931
  2810  0F50                     _ODCONC	set	3920
  2811  0F45                     _ODCONB	set	3909
  2812  0F3A                     _ODCONA	set	3898
  2813  0F66                     _ODCONE	set	3942
  2814  0F4F                     _WPUC	set	3919
  2815  0F39                     _WPUA	set	3897
  2816  0F44                     _WPUB	set	3908
  2817  0F65                     _WPUE	set	3941
  2818  0F5A                     _WPUD	set	3930
  2819  0F38                     _ANSELA	set	3896
  2820  0F64                     _ANSELE	set	3940
  2821  0F59                     _ANSELD	set	3929
  2822  0F43                     _ANSELB	set	3907
  2823  0F4E                     _ANSELC	set	3918
  2824                           
  2825                           ; #config settings
  2826  0000                     
  2827                           	psect	cinit
  2828  07FD                     start_initialization:	
  2829  07FD                     __initialization:	
  2830  07FD                     end_of_initialization:	
  2831                           ;End of C runtime variable initialization code
  2832                           
  2833  07FD                     __end_of__initialization:	
  2834  07FD  0020               	movlb	0
  2835  07FE  3187  2FBA         	ljmp	_main	;jump to C main() function
  2836                           
  2837                           	psect	cstackCOMMON
  2838  0070                     __pcstackCOMMON:	
  2839  0070                     ?_PMD_Initialize:	
  2840  0070                     ??_PMD_Initialize:	
  2841                           ; 1 bytes @ 0x0
  2842                           
  2843  0070                     ?_OSCILLATOR_Initialize:	
  2844                           ; 1 bytes @ 0x0
  2845                           
  2846  0070                     ??_OSCILLATOR_Initialize:	
  2847                           ; 1 bytes @ 0x0
  2848                           
  2849  0070                     ?_PWM6_Initialize:	
  2850                           ; 1 bytes @ 0x0
  2851                           
  2852  0070                     ??_PWM6_Initialize:	
  2853                           ; 1 bytes @ 0x0
  2854                           
  2855  0070                     ?_PWM6_LoadDutyValue:	
  2856                           ; 1 bytes @ 0x0
  2857                           
  2858  0070                     ?_TMR2_Initialize:	
  2859                           ; 1 bytes @ 0x0
  2860                           
  2861  0070                     ??_TMR2_Initialize:	
  2862                           ; 1 bytes @ 0x0
  2863                           
  2864  0070                     ?_PIN_MANAGER_Initialize:	
  2865                           ; 1 bytes @ 0x0
  2866                           
  2867  0070                     ??_PIN_MANAGER_Initialize:	
  2868                           ; 1 bytes @ 0x0
  2869                           
  2870  0070                     ?_SYSTEM_Initialize:	
  2871                           ; 1 bytes @ 0x0
  2872                           
  2873  0070                     ??_SYSTEM_Initialize:	
  2874                           ; 1 bytes @ 0x0
  2875                           
  2876  0070                     ?_main:	
  2877                           ; 1 bytes @ 0x0
  2878                           
  2879  0070                     PWM6_LoadDutyValue@dutyValue:	
  2880                           ; 1 bytes @ 0x0
  2881                           
  2882                           
  2883                           ; 2 bytes @ 0x0
  2884  0070                     	ds	2
  2885  0072                     ??_PWM6_LoadDutyValue:	
  2886                           
  2887                           ; 1 bytes @ 0x2
  2888  0072                     	ds	2
  2889  0074                     ??_main:	
  2890                           
  2891                           ; 1 bytes @ 0x4
  2892  0074                     	ds	1
  2893  0075                     main@dutycycle:	
  2894                           
  2895                           ; 2 bytes @ 0x5
  2896  0075                     	ds	2
  2897                           
  2898                           	psect	maintext
  2899  07BA                     __pmaintext:	
  2900 ;;
  2901 ;;Main: autosize = 0, tempsize = 1, incstack = 0, save=0
  2902 ;;
  2903 ;; *************** function _main *****************
  2904 ;; Defined at:
  2905 ;;		line 48 in file "main.c"
  2906 ;; Parameters:    Size  Location     Type
  2907 ;;		None
  2908 ;; Auto vars:     Size  Location     Type
  2909 ;;  dutycycle       2    5[COMMON] unsigned int 
  2910 ;; Return value:  Size  Location     Type
  2911 ;;                  1    wreg      void 
  2912 ;; Registers used:
  2913 ;;		wreg, status,2, status,0, pclath, cstack
  2914 ;; Tracked objects:
  2915 ;;		On entry : B1F/0
  2916 ;;		On exit  : 0/0
  2917 ;;		Unchanged: 0/0
  2918 ;; Data sizes:     COMMON   BANK0   BANK1   BANK2   BANK3   BANK4   BANK5   BANK6   BANK7   BANK8   BANK9  BANK10  BANK1
      +1  BANK12
  2919 ;;      Params:         0       0       0       0       0       0       0       0       0       0       0       0       
      +0       0
  2920 ;;      Locals:         2       0       0       0       0       0       0       0       0       0       0       0       
      +0       0
  2921 ;;      Temps:          1       0       0       0       0       0       0       0       0       0       0       0       
      +0       0
  2922 ;;      Totals:         3       0       0       0       0       0       0       0       0       0       0       0       
      +0       0
  2923 ;;Total ram usage:        3 bytes
  2924 ;; Hardware stack levels required when called:    2
  2925 ;; This function calls:
  2926 ;;		_PWM6_LoadDutyValue
  2927 ;;		_SYSTEM_Initialize
  2928 ;; This function is called by:
  2929 ;;		Startup code after reset
  2930 ;; This function uses a non-reentrant model
  2931 ;;
  2932                           
  2933                           
  2934                           ;psect for function _main
  2935  07BA                     _main:	
  2936                           
  2937                           ;main.c: 51: SYSTEM_Initialize();
  2938                           
  2939                           ;incstack = 0
  2940                           ; Regs used in _main: [wreg+status,2+status,0+pclath+cstack]
  2941  07BA  3187  2767  3187   	fcall	_SYSTEM_Initialize
  2942                           
  2943                           ;main.c: 52: uint16_t dutycycle;
  2944                           ;main.c: 53: dutycycle = 0;
  2945  07BD  01F5               	clrf	main@dutycycle
  2946  07BE  01F6               	clrf	main@dutycycle+1
  2947  07BF                     l794:	
  2948                           ;main.c: 70: while (1)
  2949                           
  2950                           
  2951                           ;main.c: 71: {
  2952                           ;main.c: 73: for( dutycycle = 30; dutycycle < 65; dutycycle ++){
  2953  07BF  301E               	movlw	30
  2954  07C0  00F5               	movwf	main@dutycycle
  2955  07C1  3000               	movlw	0
  2956  07C2  00F6               	movwf	main@dutycycle+1
  2957  07C3  3000               	movlw	0
  2958  07C4  0276               	subwf	main@dutycycle+1,w
  2959  07C5  3041               	movlw	65
  2960  07C6  1903               	skipnz
  2961  07C7  0275               	subwf	main@dutycycle,w
  2962  07C8  1803               	btfsc	3,0
  2963  07C9  2FE3               	goto	l808
  2964  07CA                     l800:	
  2965                           
  2966                           ;main.c: 74: PWM6_LoadDutyValue(dutycycle);
  2967  07CA  0876               	movf	main@dutycycle+1,w
  2968  07CB  00F1               	movwf	PWM6_LoadDutyValue@dutyValue+1
  2969  07CC  0875               	movf	main@dutycycle,w
  2970  07CD  00F0               	movwf	PWM6_LoadDutyValue@dutyValue
  2971  07CE  3187  2776  3187   	fcall	_PWM6_LoadDutyValue
  2972                           
  2973                           ;main.c: 75: _delay((unsigned long)((20)*(2000000/4000.0)));
  2974  07D1  300D               	movlw	13
  2975  07D2  00F4               	movwf	??_main
  2976  07D3  30FC               	movlw	252
  2977  07D4                     u127:	
  2978  07D4  0B89               	decfsz	9,f
  2979  07D5  2FD4               	goto	u127
  2980  07D6  0BF4               	decfsz	??_main,f
  2981  07D7  2FD4               	goto	u127
  2982  07D8  3001               	movlw	1
  2983  07D9  07F5               	addwf	main@dutycycle,f
  2984  07DA  3000               	movlw	0
  2985  07DB  3DF6               	addwfc	main@dutycycle+1,f
  2986  07DC  3000               	movlw	0
  2987  07DD  0276               	subwf	main@dutycycle+1,w
  2988  07DE  3041               	movlw	65
  2989  07DF  1903               	skipnz
  2990  07E0  0275               	subwf	main@dutycycle,w
  2991  07E1  1C03               	skipc
  2992  07E2  2FCA               	goto	l800
  2993  07E3                     l808:	
  2994  07E3  3000               	movlw	0
  2995  07E4  0276               	subwf	main@dutycycle+1,w
  2996  07E5  301F               	movlw	31
  2997  07E6  1903               	skipnz
  2998  07E7  0275               	subwf	main@dutycycle,w
  2999  07E8  1C03               	btfss	3,0
  3000  07E9  2FBF               	goto	l794
  3001                           
  3002                           ;main.c: 79: PWM6_LoadDutyValue(dutycycle);
  3003  07EA  0876               	movf	main@dutycycle+1,w
  3004  07EB  00F1               	movwf	PWM6_LoadDutyValue@dutyValue+1
  3005  07EC  0875               	movf	main@dutycycle,w
  3006  07ED  00F0               	movwf	PWM6_LoadDutyValue@dutyValue
  3007  07EE  3187  2776  3187   	fcall	_PWM6_LoadDutyValue
  3008                           
  3009                           ;main.c: 80: _delay((unsigned long)((20)*(2000000/4000.0)));
  3010  07F1  300D               	movlw	13
  3011  07F2  00F4               	movwf	??_main
  3012  07F3  30FC               	movlw	252
  3013  07F4                     u137:	
  3014  07F4  0B89               	decfsz	9,f
  3015  07F5  2FF4               	goto	u137
  3016  07F6  0BF4               	decfsz	??_main,f
  3017  07F7  2FF4               	goto	u137
  3018  07F8  3001               	movlw	1
  3019  07F9  02F5               	subwf	main@dutycycle,f
  3020  07FA  3000               	movlw	0
  3021  07FB  3BF6               	subwfb	main@dutycycle+1,f
  3022  07FC  2FE3               	goto	l808
  3023  07FD                     __end_of_main:	
  3024                           
  3025                           	psect	text1
  3026  0767                     __ptext1:	
  3027 ;; *************** function _SYSTEM_Initialize *****************
  3028 ;; Defined at:
  3029 ;;		line 88 in file "mcc_generated_files/mcc.c"
  3030 ;; Parameters:    Size  Location     Type
  3031 ;;		None
  3032 ;; Auto vars:     Size  Location     Type
  3033 ;;		None
  3034 ;; Return value:  Size  Location     Type
  3035 ;;                  1    wreg      void 
  3036 ;; Registers used:
  3037 ;;		wreg, status,2, status,0, pclath, cstack
  3038 ;; Tracked objects:
  3039 ;;		On entry : 0/0
  3040 ;;		On exit  : 0/0
  3041 ;;		Unchanged: 0/0
  3042 ;; Data sizes:     COMMON   BANK0   BANK1   BANK2   BANK3   BANK4   BANK5   BANK6   BANK7   BANK8   BANK9  BANK10  BANK1
      +1  BANK12
  3043 ;;      Params:         0       0       0       0       0       0       0       0       0       0       0       0       
      +0       0
  3044 ;;      Locals:         0       0       0       0       0       0       0       0       0       0       0       0       
      +0       0
  3045 ;;      Temps:          0       0       0       0       0       0       0       0       0       0       0       0       
      +0       0
  3046 ;;      Totals:         0       0       0       0       0       0       0       0       0       0       0       0       
      +0       0
  3047 ;;Total ram usage:        0 bytes
  3048 ;; Hardware stack levels used:    1
  3049 ;; Hardware stack levels required when called:    1
  3050 ;; This function calls:
  3051 ;;		_OSCILLATOR_Initialize
  3052 ;;		_PIN_MANAGER_Initialize
  3053 ;;		_PMD_Initialize
  3054 ;;		_PWM6_Initialize
  3055 ;;		_TMR2_Initialize
  3056 ;; This function is called by:
  3057 ;;		_main
  3058 ;; This function uses a non-reentrant model
  3059 ;;
  3060                           
  3061                           
  3062                           ;psect for function _SYSTEM_Initialize
  3063  0767                     _SYSTEM_Initialize:	
  3064                           
  3065                           ;mcc.c: 90: PMD_Initialize();
  3066                           
  3067                           ;incstack = 0
  3068                           ; Regs used in _SYSTEM_Initialize: [wreg+status,2+status,0+pclath+cstack]
  3069  0767  3187  273A  3187   	fcall	_PMD_Initialize
  3070                           
  3071                           ;mcc.c: 91: PIN_MANAGER_Initialize();
  3072  076A  3187  278C  3187   	fcall	_PIN_MANAGER_Initialize
  3073                           
  3074                           ;mcc.c: 92: OSCILLATOR_Initialize();
  3075  076D  3187  2742  3187   	fcall	_OSCILLATOR_Initialize
  3076                           
  3077                           ;mcc.c: 93: PWM6_Initialize();
  3078  0770  3187  274C  3187   	fcall	_PWM6_Initialize
  3079                           
  3080                           ;mcc.c: 94: TMR2_Initialize();
  3081  0773  3187  2759         	fcall	_TMR2_Initialize
  3082  0775  0008               	return
  3083  0776                     __end_of_SYSTEM_Initialize:	
  3084                           
  3085                           	psect	text2
  3086  0759                     __ptext2:	
  3087 ;; *************** function _TMR2_Initialize *****************
  3088 ;; Defined at:
  3089 ;;		line 61 in file "mcc_generated_files/tmr2.c"
  3090 ;; Parameters:    Size  Location     Type
  3091 ;;		None
  3092 ;; Auto vars:     Size  Location     Type
  3093 ;;		None
  3094 ;; Return value:  Size  Location     Type
  3095 ;;                  1    wreg      void 
  3096 ;; Registers used:
  3097 ;;		wreg, status,2
  3098 ;; Tracked objects:
  3099 ;;		On entry : 0/0
  3100 ;;		On exit  : 0/0
  3101 ;;		Unchanged: 0/0
  3102 ;; Data sizes:     COMMON   BANK0   BANK1   BANK2   BANK3   BANK4   BANK5   BANK6   BANK7   BANK8   BANK9  BANK10  BANK1
      +1  BANK12
  3103 ;;      Params:         0       0       0       0       0       0       0       0       0       0       0       0       
      +0       0
  3104 ;;      Locals:         0       0       0       0       0       0       0       0       0       0       0       0       
      +0       0
  3105 ;;      Temps:          0       0       0       0       0       0       0       0       0       0       0       0       
      +0       0
  3106 ;;      Totals:         0       0       0       0       0       0       0       0       0       0       0       0       
      +0       0
  3107 ;;Total ram usage:        0 bytes
  3108 ;; Hardware stack levels used:    1
  3109 ;; This function calls:
  3110 ;;		Nothing
  3111 ;; This function is called by:
  3112 ;;		_SYSTEM_Initialize
  3113 ;; This function uses a non-reentrant model
  3114 ;;
  3115                           
  3116                           
  3117                           ;psect for function _TMR2_Initialize
  3118  0759                     _TMR2_Initialize:	
  3119                           
  3120                           ;tmr2.c: 66: T2CLKCON = 0x01;
  3121                           
  3122                           ;incstack = 0
  3123                           ; Regs used in _TMR2_Initialize: [wreg+status,2]
  3124  0759  3001               	movlw	1
  3125  075A  0025               	movlb	5	; select bank5
  3126  075B  0090               	movwf	16	;volatile
  3127                           
  3128                           ;tmr2.c: 69: T2HLT = 0x00;
  3129  075C  018F               	clrf	15	;volatile
  3130                           
  3131                           ;tmr2.c: 72: T2RST = 0x00;
  3132  075D  0191               	clrf	17	;volatile
  3133                           
  3134                           ;tmr2.c: 75: T2PR = 0x4D;
  3135  075E  304D               	movlw	77
  3136  075F  008D               	movwf	13	;volatile
  3137                           
  3138                           ;tmr2.c: 78: T2TMR = 0x00;
  3139  0760  018C               	clrf	12	;volatile
  3140                           
  3141                           ;tmr2.c: 81: PIR4bits.TMR2IF = 0;
  3142  0761  002E               	movlb	14	; select bank14
  3143  0762  1090               	bcf	16,1	;volatile
  3144                           
  3145                           ;tmr2.c: 84: T2CON = 0xF0;
  3146  0763  30F0               	movlw	240
  3147  0764  0025               	movlb	5	; select bank5
  3148  0765  008E               	movwf	14	;volatile
  3149  0766  0008               	return
  3150  0767                     __end_of_TMR2_Initialize:	
  3151                           
  3152                           	psect	text3
  3153  074C                     __ptext3:	
  3154 ;; *************** function _PWM6_Initialize *****************
  3155 ;; Defined at:
  3156 ;;		line 57 in file "mcc_generated_files/pwm6.c"
  3157 ;; Parameters:    Size  Location     Type
  3158 ;;		None
  3159 ;; Auto vars:     Size  Location     Type
  3160 ;;		None
  3161 ;; Return value:  Size  Location     Type
  3162 ;;                  1    wreg      void 
  3163 ;; Registers used:
  3164 ;;		wreg, status,2, status,0
  3165 ;; Tracked objects:
  3166 ;;		On entry : 0/0
  3167 ;;		On exit  : 0/0
  3168 ;;		Unchanged: 0/0
  3169 ;; Data sizes:     COMMON   BANK0   BANK1   BANK2   BANK3   BANK4   BANK5   BANK6   BANK7   BANK8   BANK9  BANK10  BANK1
      +1  BANK12
  3170 ;;      Params:         0       0       0       0       0       0       0       0       0       0       0       0       
      +0       0
  3171 ;;      Locals:         0       0       0       0       0       0       0       0       0       0       0       0       
      +0       0
  3172 ;;      Temps:          0       0       0       0       0       0       0       0       0       0       0       0       
      +0       0
  3173 ;;      Totals:         0       0       0       0       0       0       0       0       0       0       0       0       
      +0       0
  3174 ;;Total ram usage:        0 bytes
  3175 ;; Hardware stack levels used:    1
  3176 ;; This function calls:
  3177 ;;		Nothing
  3178 ;; This function is called by:
  3179 ;;		_SYSTEM_Initialize
  3180 ;; This function uses a non-reentrant model
  3181 ;;
  3182                           
  3183                           
  3184                           ;psect for function _PWM6_Initialize
  3185  074C                     _PWM6_Initialize:	
  3186                           
  3187                           ;pwm6.c: 61: PWM6CON = 0x80;
  3188                           
  3189                           ;incstack = 0
  3190                           ; Regs used in _PWM6_Initialize: [wreg+status,2+status,0]
  3191  074C  3080               	movlw	128
  3192  074D  0027               	movlb	7	; select bank7
  3193  074E  008E               	movwf	14	;volatile
  3194                           
  3195                           ;pwm6.c: 64: PWM6DCH = 0x26;
  3196  074F  3026               	movlw	38
  3197  0750  008D               	movwf	13	;volatile
  3198                           
  3199                           ;pwm6.c: 67: PWM6DCL = 0xC0;
  3200  0751  30C0               	movlw	192
  3201  0752  008C               	movwf	12	;volatile
  3202                           
  3203                           ;pwm6.c: 70: CCPTMRS1bits.P6TSEL = 1;
  3204  0753  0024               	movlb	4	; select bank4
  3205  0754  081F               	movf	31,w	;volatile
  3206  0755  39F3               	andlw	-13
  3207  0756  3804               	iorlw	4
  3208  0757  009F               	movwf	31	;volatile
  3209  0758  0008               	return
  3210  0759                     __end_of_PWM6_Initialize:	
  3211                           
  3212                           	psect	text4
  3213  073A                     __ptext4:	
  3214 ;; *************** function _PMD_Initialize *****************
  3215 ;; Defined at:
  3216 ;;		line 111 in file "mcc_generated_files/mcc.c"
  3217 ;; Parameters:    Size  Location     Type
  3218 ;;		None
  3219 ;; Auto vars:     Size  Location     Type
  3220 ;;		None
  3221 ;; Return value:  Size  Location     Type
  3222 ;;                  1    wreg      void 
  3223 ;; Registers used:
  3224 ;;		status,2
  3225 ;; Tracked objects:
  3226 ;;		On entry : 0/0
  3227 ;;		On exit  : 0/0
  3228 ;;		Unchanged: 0/0
  3229 ;; Data sizes:     COMMON   BANK0   BANK1   BANK2   BANK3   BANK4   BANK5   BANK6   BANK7   BANK8   BANK9  BANK10  BANK1
      +1  BANK12
  3230 ;;      Params:         0       0       0       0       0       0       0       0       0       0       0       0       
      +0       0
  3231 ;;      Locals:         0       0       0       0       0       0       0       0       0       0       0       0       
      +0       0
  3232 ;;      Temps:          0       0       0       0       0       0       0       0       0       0       0       0       
      +0       0
  3233 ;;      Totals:         0       0       0       0       0       0       0       0       0       0       0       0       
      +0       0
  3234 ;;Total ram usage:        0 bytes
  3235 ;; Hardware stack levels used:    1
  3236 ;; This function calls:
  3237 ;;		Nothing
  3238 ;; This function is called by:
  3239 ;;		_SYSTEM_Initialize
  3240 ;; This function uses a non-reentrant model
  3241 ;;
  3242                           
  3243                           
  3244                           ;psect for function _PMD_Initialize
  3245  073A                     _PMD_Initialize:	
  3246                           
  3247                           ;mcc.c: 114: PMD0 = 0x00;
  3248                           
  3249                           ;incstack = 0
  3250                           ; Regs used in _PMD_Initialize: [status,2]
  3251  073A  002F               	movlb	15	; select bank15
  3252  073B  0196               	clrf	22	;volatile
  3253                           
  3254                           ;mcc.c: 116: PMD1 = 0x00;
  3255  073C  0197               	clrf	23	;volatile
  3256                           
  3257                           ;mcc.c: 118: PMD2 = 0x00;
  3258  073D  0198               	clrf	24	;volatile
  3259                           
  3260                           ;mcc.c: 120: PMD3 = 0x00;
  3261  073E  0199               	clrf	25	;volatile
  3262                           
  3263                           ;mcc.c: 122: PMD4 = 0x00;
  3264  073F  019A               	clrf	26	;volatile
  3265                           
  3266                           ;mcc.c: 124: PMD5 = 0x00;
  3267  0740  019B               	clrf	27	;volatile
  3268  0741  0008               	return
  3269  0742                     __end_of_PMD_Initialize:	
  3270                           
  3271                           	psect	text5
  3272  078C                     __ptext5:	
  3273 ;; *************** function _PIN_MANAGER_Initialize *****************
  3274 ;; Defined at:
  3275 ;;		line 52 in file "mcc_generated_files/pin_manager.c"
  3276 ;; Parameters:    Size  Location     Type
  3277 ;;		None
  3278 ;; Auto vars:     Size  Location     Type
  3279 ;;		None
  3280 ;; Return value:  Size  Location     Type
  3281 ;;                  1    wreg      void 
  3282 ;; Registers used:
  3283 ;;		wreg, status,2, status,0
  3284 ;; Tracked objects:
  3285 ;;		On entry : 0/0
  3286 ;;		On exit  : 0/0
  3287 ;;		Unchanged: 0/0
  3288 ;; Data sizes:     COMMON   BANK0   BANK1   BANK2   BANK3   BANK4   BANK5   BANK6   BANK7   BANK8   BANK9  BANK10  BANK1
      +1  BANK12
  3289 ;;      Params:         0       0       0       0       0       0       0       0       0       0       0       0       
      +0       0
  3290 ;;      Locals:         0       0       0       0       0       0       0       0       0       0       0       0       
      +0       0
  3291 ;;      Temps:          0       0       0       0       0       0       0       0       0       0       0       0       
      +0       0
  3292 ;;      Totals:         0       0       0       0       0       0       0       0       0       0       0       0       
      +0       0
  3293 ;;Total ram usage:        0 bytes
  3294 ;; Hardware stack levels used:    1
  3295 ;; This function calls:
  3296 ;;		Nothing
  3297 ;; This function is called by:
  3298 ;;		_SYSTEM_Initialize
  3299 ;; This function uses a non-reentrant model
  3300 ;;
  3301                           
  3302                           
  3303                           ;psect for function _PIN_MANAGER_Initialize
  3304  078C                     _PIN_MANAGER_Initialize:	
  3305                           
  3306                           ;pin_manager.c: 57: LATE = 0x00;
  3307                           
  3308                           ;incstack = 0
  3309                           ; Regs used in _PIN_MANAGER_Initialize: [wreg+status,2+status,0]
  3310  078C  0020               	movlb	0	; select bank0
  3311  078D  019A               	clrf	26	;volatile
  3312                           
  3313                           ;pin_manager.c: 58: LATD = 0x00;
  3314  078E  0199               	clrf	25	;volatile
  3315                           
  3316                           ;pin_manager.c: 59: LATA = 0x00;
  3317  078F  0196               	clrf	22	;volatile
  3318                           
  3319                           ;pin_manager.c: 60: LATB = 0x00;
  3320  0790  0197               	clrf	23	;volatile
  3321                           
  3322                           ;pin_manager.c: 61: LATC = 0x00;
  3323  0791  0198               	clrf	24	;volatile
  3324                           
  3325                           ;pin_manager.c: 66: TRISE = 0x07;
  3326  0792  3007               	movlw	7
  3327  0793  0095               	movwf	21	;volatile
  3328                           
  3329                           ;pin_manager.c: 67: TRISA = 0xEF;
  3330  0794  30EF               	movlw	239
  3331  0795  0091               	movwf	17	;volatile
  3332                           
  3333                           ;pin_manager.c: 68: TRISB = 0xFF;
  3334  0796  30FF               	movlw	255
  3335  0797  0092               	movwf	18	;volatile
  3336                           
  3337                           ;pin_manager.c: 69: TRISC = 0xFF;
  3338  0798  30FF               	movlw	255
  3339  0799  0093               	movwf	19	;volatile
  3340                           
  3341                           ;pin_manager.c: 70: TRISD = 0xFF;
  3342  079A  30FF               	movlw	255
  3343  079B  0094               	movwf	20	;volatile
  3344                           
  3345                           ;pin_manager.c: 75: ANSELC = 0xF7;
  3346  079C  30F7               	movlw	247
  3347  079D  003E               	movlb	30	; select bank30
  3348  079E  00CE               	movwf	78	;volatile
  3349                           
  3350                           ;pin_manager.c: 76: ANSELB = 0xFF;
  3351  079F  30FF               	movlw	255
  3352  07A0  00C3               	movwf	67	;volatile
  3353                           
  3354                           ;pin_manager.c: 77: ANSELD = 0xFF;
  3355  07A1  30FF               	movlw	255
  3356  07A2  00D9               	movwf	89	;volatile
  3357                           
  3358                           ;pin_manager.c: 78: ANSELE = 0x07;
  3359  07A3  3007               	movlw	7
  3360  07A4  00E4               	movwf	100	;volatile
  3361                           
  3362                           ;pin_manager.c: 79: ANSELA = 0xFF;
  3363  07A5  30FF               	movlw	255
  3364  07A6  00B8               	movwf	56	;volatile
  3365                           
  3366                           ;pin_manager.c: 84: WPUD = 0x00;
  3367  07A7  01DA               	clrf	90	;volatile
  3368                           
  3369                           ;pin_manager.c: 85: WPUE = 0x00;
  3370  07A8  01E5               	clrf	101	;volatile
  3371                           
  3372                           ;pin_manager.c: 86: WPUB = 0x00;
  3373  07A9  01C4               	clrf	68	;volatile
  3374                           
  3375                           ;pin_manager.c: 87: WPUA = 0x00;
  3376  07AA  01B9               	clrf	57	;volatile
  3377                           
  3378                           ;pin_manager.c: 88: WPUC = 0x00;
  3379  07AB  01CF               	clrf	79	;volatile
  3380                           
  3381                           ;pin_manager.c: 93: ODCONE = 0x00;
  3382  07AC  01E6               	clrf	102	;volatile
  3383                           
  3384                           ;pin_manager.c: 94: ODCONA = 0x00;
  3385  07AD  01BA               	clrf	58	;volatile
  3386                           
  3387                           ;pin_manager.c: 95: ODCONB = 0x00;
  3388  07AE  01C5               	clrf	69	;volatile
  3389                           
  3390                           ;pin_manager.c: 96: ODCONC = 0x00;
  3391  07AF  01D0               	clrf	80	;volatile
  3392                           
  3393                           ;pin_manager.c: 97: ODCOND = 0x00;
  3394  07B0  01DB               	clrf	91	;volatile
  3395                           
  3396                           ;pin_manager.c: 104: T2AINPPSbits.T2AINPPS = 0x13;
  3397  07B1  003D               	movlb	29	; select bank29
  3398  07B2  081C               	movf	28,w	;volatile
  3399  07B3  39E0               	andlw	-32
  3400  07B4  3813               	iorlw	19
  3401  07B5  009C               	movwf	28	;volatile
  3402                           
  3403                           ;pin_manager.c: 105: RA4PPS = 0x0E;
  3404  07B6  300E               	movlw	14
  3405  07B7  003E               	movlb	30	; select bank30
  3406  07B8  0094               	movwf	20	;volatile
  3407  07B9  0008               	return
  3408  07BA                     __end_of_PIN_MANAGER_Initialize:	
  3409                           
  3410                           	psect	text6
  3411  0742                     __ptext6:	
  3412 ;; *************** function _OSCILLATOR_Initialize *****************
  3413 ;; Defined at:
  3414 ;;		line 97 in file "mcc_generated_files/mcc.c"
  3415 ;; Parameters:    Size  Location     Type
  3416 ;;		None
  3417 ;; Auto vars:     Size  Location     Type
  3418 ;;		None
  3419 ;; Return value:  Size  Location     Type
  3420 ;;                  1    wreg      void 
  3421 ;; Registers used:
  3422 ;;		wreg, status,2
  3423 ;; Tracked objects:
  3424 ;;		On entry : 0/0
  3425 ;;		On exit  : 0/0
  3426 ;;		Unchanged: 0/0
  3427 ;; Data sizes:     COMMON   BANK0   BANK1   BANK2   BANK3   BANK4   BANK5   BANK6   BANK7   BANK8   BANK9  BANK10  BANK1
      +1  BANK12
  3428 ;;      Params:         0       0       0       0       0       0       0       0       0       0       0       0       
      +0       0
  3429 ;;      Locals:         0       0       0       0       0       0       0       0       0       0       0       0       
      +0       0
  3430 ;;      Temps:          0       0       0       0       0       0       0       0       0       0       0       0       
      +0       0
  3431 ;;      Totals:         0       0       0       0       0       0       0       0       0       0       0       0       
      +0       0
  3432 ;;Total ram usage:        0 bytes
  3433 ;; Hardware stack levels used:    1
  3434 ;; This function calls:
  3435 ;;		Nothing
  3436 ;; This function is called by:
  3437 ;;		_SYSTEM_Initialize
  3438 ;; This function uses a non-reentrant model
  3439 ;;
  3440                           
  3441                           
  3442                           ;psect for function _OSCILLATOR_Initialize
  3443  0742                     _OSCILLATOR_Initialize:	
  3444                           
  3445                           ;mcc.c: 100: OSCCON1 = 0x60;
  3446                           
  3447                           ;incstack = 0
  3448                           ; Regs used in _OSCILLATOR_Initialize: [wreg+status,2]
  3449  0742  3060               	movlw	96
  3450  0743  0031               	movlb	17	; select bank17
  3451  0744  008D               	movwf	13	;volatile
  3452                           
  3453                           ;mcc.c: 102: OSCCON3 = 0x00;
  3454  0745  018F               	clrf	15	;volatile
  3455                           
  3456                           ;mcc.c: 104: OSCEN = 0x00;
  3457  0746  0191               	clrf	17	;volatile
  3458                           
  3459                           ;mcc.c: 106: OSCFRQ = 0x01;
  3460  0747  3001               	movlw	1
  3461  0748  0093               	movwf	19	;volatile
  3462                           
  3463                           ;mcc.c: 108: OSCTUNE = 0x20;
  3464  0749  3020               	movlw	32
  3465  074A  0092               	movwf	18	;volatile
  3466  074B  0008               	return
  3467  074C                     __end_of_OSCILLATOR_Initialize:	
  3468                           
  3469                           	psect	text7
  3470  0776                     __ptext7:	
  3471 ;; *************** function _PWM6_LoadDutyValue *****************
  3472 ;; Defined at:
  3473 ;;		line 73 in file "mcc_generated_files/pwm6.c"
  3474 ;; Parameters:    Size  Location     Type
  3475 ;;  dutyValue       2    0[COMMON] unsigned int 
  3476 ;; Auto vars:     Size  Location     Type
  3477 ;;		None
  3478 ;; Return value:  Size  Location     Type
  3479 ;;                  1    wreg      void 
  3480 ;; Registers used:
  3481 ;;		wreg, status,2, status,0
  3482 ;; Tracked objects:
  3483 ;;		On entry : 0/0
  3484 ;;		On exit  : 0/0
  3485 ;;		Unchanged: 0/0
  3486 ;; Data sizes:     COMMON   BANK0   BANK1   BANK2   BANK3   BANK4   BANK5   BANK6   BANK7   BANK8   BANK9  BANK10  BANK1
      +1  BANK12
  3487 ;;      Params:         2       0       0       0       0       0       0       0       0       0       0       0       
      +0       0
  3488 ;;      Locals:         0       0       0       0       0       0       0       0       0       0       0       0       
      +0       0
  3489 ;;      Temps:          2       0       0       0       0       0       0       0       0       0       0       0       
      +0       0
  3490 ;;      Totals:         4       0       0       0       0       0       0       0       0       0       0       0       
      +0       0
  3491 ;;Total ram usage:        4 bytes
  3492 ;; Hardware stack levels used:    1
  3493 ;; This function calls:
  3494 ;;		Nothing
  3495 ;; This function is called by:
  3496 ;;		_main
  3497 ;; This function uses a non-reentrant model
  3498 ;;
  3499                           
  3500                           
  3501                           ;psect for function _PWM6_LoadDutyValue
  3502  0776                     _PWM6_LoadDutyValue:	
  3503                           
  3504                           ;pwm6.c: 76: PWM6DCH = (dutyValue & 0x03FC)>>2;
  3505                           
  3506                           ;incstack = 0
  3507                           ; Regs used in _PWM6_LoadDutyValue: [wreg+status,2+status,0]
  3508  0776  0871               	movf	PWM6_LoadDutyValue@dutyValue+1,w
  3509  0777  00F3               	movwf	??_PWM6_LoadDutyValue+1
  3510  0778  0870               	movf	PWM6_LoadDutyValue@dutyValue,w
  3511  0779  00F2               	movwf	??_PWM6_LoadDutyValue
  3512  077A  36F3               	lsrf	??_PWM6_LoadDutyValue+1,f
  3513  077B  0CF2               	rrf	??_PWM6_LoadDutyValue,f
  3514  077C  36F3               	lsrf	??_PWM6_LoadDutyValue+1,f
  3515  077D  0CF2               	rrf	??_PWM6_LoadDutyValue,f
  3516  077E  0872               	movf	??_PWM6_LoadDutyValue,w
  3517  077F  0027               	movlb	7	; select bank7
  3518  0780  008D               	movwf	13	;volatile
  3519                           
  3520                           ;pwm6.c: 79: PWM6DCL = (dutyValue & 0x0003)<<6;
  3521  0781  0870               	movf	PWM6_LoadDutyValue@dutyValue,w
  3522  0782  3903               	andlw	3
  3523  0783  00F2               	movwf	??_PWM6_LoadDutyValue
  3524  0784  3005               	movlw	5
  3525  0785                     u75:	
  3526  0785  35F2               	lslf	??_PWM6_LoadDutyValue,f
  3527  0786  3EFF               	addlw	-1
  3528  0787  1D03               	skipz
  3529  0788  2F85               	goto	u75
  3530  0789  3572               	lslf	??_PWM6_LoadDutyValue,w
  3531  078A  008C               	movwf	12	;volatile
  3532  078B  0008               	return
  3533  078C                     __end_of_PWM6_LoadDutyValue:	
  3534  007E                     btemp	set	126	;btemp
  3535  007E                     wtemp0	set	126


Data Sizes:
    Strings     0
    Constant    0
    Data        0
    BSS         0
    Persistent  0
    Stack       0

Auto Spaces:
    Space          Size  Autos    Used
    COMMON           14      7       7
    BANK0            80      0       0
    BANK1            80      0       0
    BANK2            80      0       0
    BANK3            80      0       0
    BANK4            80      0       0
    BANK5            80      0       0
    BANK6            80      0       0
    BANK7            80      0       0
    BANK8            80      0       0
    BANK9            80      0       0
    BANK10           80      0       0
    BANK11           80      0       0
    BANK12           48      0       0

Pointer List with Targets:

    None.

Critical Paths under _main in COMMON

    _main->_PWM6_LoadDutyValue

Critical Paths under _main in BANK0

    None.

Critical Paths under _main in BANK1

    None.

Critical Paths under _main in BANK2

    None.

Critical Paths under _main in BANK3

    None.

Critical Paths under _main in BANK4

    None.

Critical Paths under _main in BANK5

    None.

Critical Paths under _main in BANK6

    None.

Critical Paths under _main in BANK7

    None.

Critical Paths under _main in BANK8

    None.

Critical Paths under _main in BANK9

    None.

Critical Paths under _main in BANK10

    None.

Critical Paths under _main in BANK11

    None.

Critical Paths under _main in BANK12

    None.

Call Graph Tables:

 ---------------------------------------------------------------------------------
 (Depth) Function   	        Calls       Base Space   Used Autos Params    Refs
 ---------------------------------------------------------------------------------
 (0) _main                                                 3     3      0     308
                                              4 COMMON     3     3      0
                 _PWM6_LoadDutyValue
                  _SYSTEM_Initialize
 ---------------------------------------------------------------------------------
 (1) _SYSTEM_Initialize                                    0     0      0       0
              _OSCILLATOR_Initialize
             _PIN_MANAGER_Initialize
                     _PMD_Initialize
                    _PWM6_Initialize
                    _TMR2_Initialize
 ---------------------------------------------------------------------------------
 (2) _TMR2_Initialize                                      0     0      0       0
 ---------------------------------------------------------------------------------
 (2) _PWM6_Initialize                                      0     0      0       0
 ---------------------------------------------------------------------------------
 (2) _PMD_Initialize                                       0     0      0       0
 ---------------------------------------------------------------------------------
 (2) _PIN_MANAGER_Initialize                               0     0      0       0
 ---------------------------------------------------------------------------------
 (2) _OSCILLATOR_Initialize                                0     0      0       0
 ---------------------------------------------------------------------------------
 (1) _PWM6_LoadDutyValue                                   4     2      2     172
                                              0 COMMON     4     2      2
 ---------------------------------------------------------------------------------
 Estimated maximum stack depth 2
 ---------------------------------------------------------------------------------

 Call Graph Graphs:

 _main (ROOT)
   _PWM6_LoadDutyValue
   _SYSTEM_Initialize
     _OSCILLATOR_Initialize
     _PIN_MANAGER_Initialize
     _PMD_Initialize
     _PWM6_Initialize
     _TMR2_Initialize

 Address spaces:
Name               Size   Autos  Total    Cost      Usage
BIGRAM             3F0      0       0       0        0.0%
EEDATA             100      0       0       0        0.0%
NULL                 0      0       0       0        0.0%
CODE                 0      0       0       0        0.0%
BITCOMMON            E      0       0       1        0.0%
BITSFR0              0      0       0       1        0.0%
SFR0                 0      0       0       1        0.0%
COMMON               E      7       7       2       50.0%
BITSFR1              0      0       0       2        0.0%
SFR1                 0      0       0       2        0.0%
BITSFR2              0      0       0       3        0.0%
SFR2                 0      0       0       3        0.0%
STACK                0      0       0       3        0.0%
BITBANK0            50      0       0       4        0.0%
BITSFR3              0      0       0       4        0.0%
SFR3                 0      0       0       4        0.0%
BANK0               50      0       0       5        0.0%
BITSFR4              0      0       0       5        0.0%
SFR4                 0      0       0       5        0.0%
BITBANK1            50      0       0       6        0.0%
BITSFR5              0      0       0       6        0.0%
SFR5                 0      0       0       6        0.0%
BANK1               50      0       0       7        0.0%
BITSFR6              0      0       0       7        0.0%
SFR6                 0      0       0       7        0.0%
BITBANK2            50      0       0       8        0.0%
BITSFR7              0      0       0       8        0.0%
SFR7                 0      0       0       8        0.0%
BANK2               50      0       0       9        0.0%
BITSFR8              0      0       0       9        0.0%
SFR8                 0      0       0       9        0.0%
BITBANK3            50      0       0      10        0.0%
BITSFR9              0      0       0      10        0.0%
SFR9                 0      0       0      10        0.0%
BANK3               50      0       0      11        0.0%
BITSFR10             0      0       0      11        0.0%
SFR10                0      0       0      11        0.0%
BITBANK4            50      0       0      12        0.0%
BITSFR11             0      0       0      12        0.0%
SFR11                0      0       0      12        0.0%
BANK4               50      0       0      13        0.0%
BITSFR12             0      0       0      13        0.0%
SFR12                0      0       0      13        0.0%
BITBANK5            50      0       0      14        0.0%
BITSFR13             0      0       0      14        0.0%
SFR13                0      0       0      14        0.0%
BANK5               50      0       0      15        0.0%
BITSFR14             0      0       0      15        0.0%
SFR14                0      0       0      15        0.0%
BITBANK6            50      0       0      16        0.0%
BITSFR15             0      0       0      16        0.0%
SFR15                0      0       0      16        0.0%
BANK6               50      0       0      17        0.0%
BITSFR16             0      0       0      17        0.0%
SFR16                0      0       0      17        0.0%
BITBANK7            50      0       0      18        0.0%
BITSFR17             0      0       0      18        0.0%
SFR17                0      0       0      18        0.0%
BANK7               50      0       0      19        0.0%
BITSFR18             0      0       0      19        0.0%
SFR18                0      0       0      19        0.0%
BITSFR19             0      0       0      20        0.0%
SFR19                0      0       0      20        0.0%
ABS                  0      0       0      20        0.0%
BITBANK8            50      0       0      21        0.0%
BITSFR20             0      0       0      21        0.0%
SFR20                0      0       0      21        0.0%
BANK8               50      0       0      22        0.0%
BITSFR21             0      0       0      22        0.0%
SFR21                0      0       0      22        0.0%
BITBANK9            50      0       0      23        0.0%
BITSFR22             0      0       0      23        0.0%
SFR22                0      0       0      23        0.0%
BANK9               50      0       0      24        0.0%
BITSFR23             0      0       0      24        0.0%
SFR23                0      0       0      24        0.0%
BITBANK10           50      0       0      25        0.0%
BITSFR24             0      0       0      25        0.0%
SFR24                0      0       0      25        0.0%
BANK10              50      0       0      26        0.0%
BITSFR25             0      0       0      26        0.0%
SFR25                0      0       0      26        0.0%
BITBANK11           50      0       0      27        0.0%
BITSFR26             0      0       0      27        0.0%
SFR26                0      0       0      27        0.0%
BANK11              50      0       0      28        0.0%
BITSFR27             0      0       0      28        0.0%
SFR27                0      0       0      28        0.0%
BITBANK12           30      0       0      29        0.0%
BITSFR28             0      0       0      29        0.0%
SFR28                0      0       0      29        0.0%
BANK12              30      0       0      30        0.0%
BITSFR29             0      0       0      30        0.0%
SFR29                0      0       0      30        0.0%
BITSFR30             0      0       0      31        0.0%
SFR30                0      0       0      31        0.0%
DATA                 0      0       0      31        0.0%
BITSFR31             0      0       0      32        0.0%
SFR31                0      0       0      32        0.0%


Microchip Technology PIC Macro Assembler V1.44 build -154322312 
Symbol Table                                                                                   Sat Feb 17 21:11:28 2018

                    __CFG_CP$OFF 0000                               u75 0785      __size_of_PWM6_LoadDutyValue 0016  
                    __CFG_LVP$ON 0000                              l800 07CA                              l808 07E3  
                            l794 07BF                              u127 07D4                              u137 07F4  
                            _PR2 028D                     __CFG_CPD$OFF 0000          __size_of_PMD_Initialize 0008  
                _TMR2_Initialize 0759                     __CFG_BORV$LO 0000                              wreg 0009  
                   __CFG_ZCD$OFF 0000                             _LATA 0016                             _LATB 0017  
                           _LATC 0018                             _LATD 0019                             _LATE 001A  
                           _T2PR 028D                             _PMD0 0796                             _PMD1 0797  
                           _PMD2 0798                             _PMD3 0799                             _PMD4 079A  
                           _PMD5 079B                             _TMR2 028C                             _WPUA 0F39  
                           _WPUB 0F44                             _WPUC 0F4F                             _WPUD 0F5A  
                           _WPUE 0F65                     __CFG_WRT$OFF 0000                    __CFG_FCMEN$ON 0000  
                           _main 07BA                             btemp 007E                    __CFG_BOREN$ON 0000  
                           start 0002                    __CFG_CSWEN$ON 0000                    __CFG_MCLRE$ON 0000  
 __size_of_OSCILLATOR_Initialize 000A    __end_of_OSCILLATOR_Initialize 074C                            ?_main 0070  
                  __CFG_WDTE$OFF 0000                            _T2CON 028E                            _T2HLT 028F  
                 __CFG_DEBUG$OFF 0000                            _T2TMR 028C                            _T2RST 0291  
                          _OSCEN 0891                            _TRISA 0011                            _TRISB 0012  
                          _TRISC 0013                            _TRISD 0014                            _TRISE 0015  
                _PWM6_Initialize 074C                            wtemp0 007E                  __initialization 07FD  
                   __end_of_main 07FD          __end_of_TMR2_Initialize 0767                           ??_main 0074  
                         _ANSELA 0F38                           _ANSELB 0F43                           _ANSELC 0F4E  
                         _ANSELD 0F59                           _ANSELE 0F64               __CFG_RSTOSC$HFINT1 0000  
                         _RA4PPS 0F14                           _ODCONA 0F3A                           _ODCONB 0F45  
                         _ODCONC 0F50                           _ODCOND 0F5B                           _ODCONE 0F66  
                 __CFG_WDTCCS$SC 0000                           _OSCFRQ 0893                   __CFG_PWRTE$OFF 0000  
                  main@dutycycle 0075                     _CCPTMRS1bits 021F                   __CFG_STVREN$ON 0000  
        __end_of_PWM6_Initialize 0759                   _PMD_Initialize 073A                _SYSTEM_Initialize 0767  
        __end_of__initialization 07FD               ?_SYSTEM_Initialize 0070                   __pcstackCOMMON 0070  
            ??_SYSTEM_Initialize 0070                 ?_TMR2_Initialize 0070           __end_of_PMD_Initialize 0742  
      __end_of_SYSTEM_Initialize 0776                     _T2AINPPSbits 0E9C                       __pmaintext 07BA  
                __CFG_PPS1WAY$ON 0000       __end_of_PWM6_LoadDutyValue 078C                 ?_PWM6_Initialize 0070  
                ?_PMD_Initialize 0070                          _OSCCON1 088D                          _OSCCON3 088F  
                        _OSCTUNE 0892                          _PWM6DCH 038D                          _PWM6DCL 038C  
                        _PWM6CON 038E             __CFG_SCANE$available 0000                          __ptext1 0767  
                        __ptext2 0759                          __ptext3 074C                          __ptext4 073A  
                        __ptext5 078C                          __ptext6 0742                          __ptext7 0776  
          _OSCILLATOR_Initialize 0742                        _T2CONbits 028E         ??_PIN_MANAGER_Initialize 0070  
                      _T2HLTbits 028F       __size_of_SYSTEM_Initialize 000F             end_of_initialization 07FD  
                      _T2RSTbits 0291            __CFG_WDTCPS$WDTCPS_31 0000                 __CFG_FEXTOSC$OFF 0000  
         ?_OSCILLATOR_Initialize 0070              start_initialization 07FD  __size_of_PIN_MANAGER_Initialize 002E  
               __CFG_LPBOREN$OFF 0000                 ??_PMD_Initialize 0070                        ___latbits 0002  
             _PWM6_LoadDutyValue 0776         __size_of_TMR2_Initialize 000E              ?_PWM6_LoadDutyValue 0070  
         _PIN_MANAGER_Initialize 078C             ??_PWM6_LoadDutyValue 0072         __size_of_PWM6_Initialize 000D  
                       _T2CLKCON 0290                         _PIR4bits 0710                ??_TMR2_Initialize 0070  
        ??_OSCILLATOR_Initialize 0070                ??_PWM6_Initialize 0070                    __size_of_main 0043  
           __CFG_WDTCWS$WDTCWS_7 0000          ?_PIN_MANAGER_Initialize 0070                __CFG_CLKOUTEN$OFF 0000  
    PWM6_LoadDutyValue@dutyValue 0070   __end_of_PIN_MANAGER_Initialize 07BA  
